
BLDC_STSPIN_KIT.elf:     file format elf32-littlearm

Sections:
Idx Name          Size      VMA       LMA       File off  Algn
  0 .isr_vector   000000c0  08000000  08000000  00001000  2**0
                  CONTENTS, ALLOC, LOAD, READONLY, DATA
  1 .text         00004e8c  080000c0  080000c0  000010c0  2**2
                  CONTENTS, ALLOC, LOAD, READONLY, CODE
  2 .rodata       00000338  08004f4c  08004f4c  00005f4c  2**2
                  CONTENTS, ALLOC, LOAD, READONLY, DATA
  3 .ARM.extab    00000000  08005284  08005284  00007564  2**0
                  CONTENTS
  4 .ARM          00000000  08005284  08005284  00007564  2**0
                  CONTENTS
  5 .preinit_array 00000000  08005284  08005284  00007564  2**0
                  CONTENTS, ALLOC, LOAD, DATA
  6 .init_array   00000004  08005284  08005284  00006284  2**2
                  CONTENTS, ALLOC, LOAD, DATA
  7 .fini_array   00000004  08005288  08005288  00006288  2**2
                  CONTENTS, ALLOC, LOAD, DATA
  8 .data         00000564  20000000  0800528c  00007000  2**2
                  CONTENTS, ALLOC, LOAD, DATA
  9 .bss          000001b0  20000564  080057f0  00007564  2**2
                  ALLOC
 10 ._user_heap_stack 00000484  20000714  080057f0  00007714  2**0
                  ALLOC
 11 .ARM.attributes 00000028  00000000  00000000  00007564  2**0
                  CONTENTS, READONLY
 12 .comment      000000c2  00000000  00000000  0000758c  2**0
                  CONTENTS, READONLY
 13 .debug_frame  00000290  00000000  00000000  00007650  2**2
                  CONTENTS, READONLY, DEBUGGING, OCTETS

Disassembly of section .text:

080000c0 <__do_global_dtors_aux>:
 80000c0:	b510      	push	{r4, lr}
 80000c2:	4c06      	ldr	r4, [pc, #24]	@ (80000dc <__do_global_dtors_aux+0x1c>)
 80000c4:	7823      	ldrb	r3, [r4, #0]
 80000c6:	2b00      	cmp	r3, #0
 80000c8:	d107      	bne.n	80000da <__do_global_dtors_aux+0x1a>
 80000ca:	4b05      	ldr	r3, [pc, #20]	@ (80000e0 <__do_global_dtors_aux+0x20>)
 80000cc:	2b00      	cmp	r3, #0
 80000ce:	d002      	beq.n	80000d6 <__do_global_dtors_aux+0x16>
 80000d0:	4804      	ldr	r0, [pc, #16]	@ (80000e4 <__do_global_dtors_aux+0x24>)
 80000d2:	e000      	b.n	80000d6 <__do_global_dtors_aux+0x16>
 80000d4:	bf00      	nop
 80000d6:	2301      	movs	r3, #1
 80000d8:	7023      	strb	r3, [r4, #0]
 80000da:	bd10      	pop	{r4, pc}
 80000dc:	20000564 	.word	0x20000564
 80000e0:	00000000 	.word	0x00000000
 80000e4:	08004f34 	.word	0x08004f34

080000e8 <frame_dummy>:
 80000e8:	4b04      	ldr	r3, [pc, #16]	@ (80000fc <frame_dummy+0x14>)
 80000ea:	b510      	push	{r4, lr}
 80000ec:	2b00      	cmp	r3, #0
 80000ee:	d003      	beq.n	80000f8 <frame_dummy+0x10>
 80000f0:	4903      	ldr	r1, [pc, #12]	@ (8000100 <frame_dummy+0x18>)
 80000f2:	4804      	ldr	r0, [pc, #16]	@ (8000104 <frame_dummy+0x1c>)
 80000f4:	e000      	b.n	80000f8 <frame_dummy+0x10>
 80000f6:	bf00      	nop
 80000f8:	bd10      	pop	{r4, pc}
 80000fa:	46c0      	nop			@ (mov r8, r8)
 80000fc:	00000000 	.word	0x00000000
 8000100:	20000568 	.word	0x20000568
 8000104:	08004f34 	.word	0x08004f34

08000108 <__gnu_thumb1_case_sqi>:
 8000108:	b402      	push	{r1}
 800010a:	4671      	mov	r1, lr
 800010c:	0849      	lsrs	r1, r1, #1
 800010e:	0049      	lsls	r1, r1, #1
 8000110:	5609      	ldrsb	r1, [r1, r0]
 8000112:	0049      	lsls	r1, r1, #1
 8000114:	448e      	add	lr, r1
 8000116:	bc02      	pop	{r1}
 8000118:	4770      	bx	lr
 800011a:	46c0      	nop			@ (mov r8, r8)

0800011c <__gnu_thumb1_case_uqi>:
 800011c:	b402      	push	{r1}
 800011e:	4671      	mov	r1, lr
 8000120:	0849      	lsrs	r1, r1, #1
 8000122:	0049      	lsls	r1, r1, #1
 8000124:	5c09      	ldrb	r1, [r1, r0]
 8000126:	0049      	lsls	r1, r1, #1
 8000128:	448e      	add	lr, r1
 800012a:	bc02      	pop	{r1}
 800012c:	4770      	bx	lr
 800012e:	46c0      	nop			@ (mov r8, r8)

08000130 <__udivsi3>:
 8000130:	2200      	movs	r2, #0
 8000132:	0843      	lsrs	r3, r0, #1
 8000134:	428b      	cmp	r3, r1
 8000136:	d374      	bcc.n	8000222 <__udivsi3+0xf2>
 8000138:	0903      	lsrs	r3, r0, #4
 800013a:	428b      	cmp	r3, r1
 800013c:	d35f      	bcc.n	80001fe <__udivsi3+0xce>
 800013e:	0a03      	lsrs	r3, r0, #8
 8000140:	428b      	cmp	r3, r1
 8000142:	d344      	bcc.n	80001ce <__udivsi3+0x9e>
 8000144:	0b03      	lsrs	r3, r0, #12
 8000146:	428b      	cmp	r3, r1
 8000148:	d328      	bcc.n	800019c <__udivsi3+0x6c>
 800014a:	0c03      	lsrs	r3, r0, #16
 800014c:	428b      	cmp	r3, r1
 800014e:	d30d      	bcc.n	800016c <__udivsi3+0x3c>
 8000150:	22ff      	movs	r2, #255	@ 0xff
 8000152:	0209      	lsls	r1, r1, #8
 8000154:	ba12      	rev	r2, r2
 8000156:	0c03      	lsrs	r3, r0, #16
 8000158:	428b      	cmp	r3, r1
 800015a:	d302      	bcc.n	8000162 <__udivsi3+0x32>
 800015c:	1212      	asrs	r2, r2, #8
 800015e:	0209      	lsls	r1, r1, #8
 8000160:	d065      	beq.n	800022e <__udivsi3+0xfe>
 8000162:	0b03      	lsrs	r3, r0, #12
 8000164:	428b      	cmp	r3, r1
 8000166:	d319      	bcc.n	800019c <__udivsi3+0x6c>
 8000168:	e000      	b.n	800016c <__udivsi3+0x3c>
 800016a:	0a09      	lsrs	r1, r1, #8
 800016c:	0bc3      	lsrs	r3, r0, #15
 800016e:	428b      	cmp	r3, r1
 8000170:	d301      	bcc.n	8000176 <__udivsi3+0x46>
 8000172:	03cb      	lsls	r3, r1, #15
 8000174:	1ac0      	subs	r0, r0, r3
 8000176:	4152      	adcs	r2, r2
 8000178:	0b83      	lsrs	r3, r0, #14
 800017a:	428b      	cmp	r3, r1
 800017c:	d301      	bcc.n	8000182 <__udivsi3+0x52>
 800017e:	038b      	lsls	r3, r1, #14
 8000180:	1ac0      	subs	r0, r0, r3
 8000182:	4152      	adcs	r2, r2
 8000184:	0b43      	lsrs	r3, r0, #13
 8000186:	428b      	cmp	r3, r1
 8000188:	d301      	bcc.n	800018e <__udivsi3+0x5e>
 800018a:	034b      	lsls	r3, r1, #13
 800018c:	1ac0      	subs	r0, r0, r3
 800018e:	4152      	adcs	r2, r2
 8000190:	0b03      	lsrs	r3, r0, #12
 8000192:	428b      	cmp	r3, r1
 8000194:	d301      	bcc.n	800019a <__udivsi3+0x6a>
 8000196:	030b      	lsls	r3, r1, #12
 8000198:	1ac0      	subs	r0, r0, r3
 800019a:	4152      	adcs	r2, r2
 800019c:	0ac3      	lsrs	r3, r0, #11
 800019e:	428b      	cmp	r3, r1
 80001a0:	d301      	bcc.n	80001a6 <__udivsi3+0x76>
 80001a2:	02cb      	lsls	r3, r1, #11
 80001a4:	1ac0      	subs	r0, r0, r3
 80001a6:	4152      	adcs	r2, r2
 80001a8:	0a83      	lsrs	r3, r0, #10
 80001aa:	428b      	cmp	r3, r1
 80001ac:	d301      	bcc.n	80001b2 <__udivsi3+0x82>
 80001ae:	028b      	lsls	r3, r1, #10
 80001b0:	1ac0      	subs	r0, r0, r3
 80001b2:	4152      	adcs	r2, r2
 80001b4:	0a43      	lsrs	r3, r0, #9
 80001b6:	428b      	cmp	r3, r1
 80001b8:	d301      	bcc.n	80001be <__udivsi3+0x8e>
 80001ba:	024b      	lsls	r3, r1, #9
 80001bc:	1ac0      	subs	r0, r0, r3
 80001be:	4152      	adcs	r2, r2
 80001c0:	0a03      	lsrs	r3, r0, #8
 80001c2:	428b      	cmp	r3, r1
 80001c4:	d301      	bcc.n	80001ca <__udivsi3+0x9a>
 80001c6:	020b      	lsls	r3, r1, #8
 80001c8:	1ac0      	subs	r0, r0, r3
 80001ca:	4152      	adcs	r2, r2
 80001cc:	d2cd      	bcs.n	800016a <__udivsi3+0x3a>
 80001ce:	09c3      	lsrs	r3, r0, #7
 80001d0:	428b      	cmp	r3, r1
 80001d2:	d301      	bcc.n	80001d8 <__udivsi3+0xa8>
 80001d4:	01cb      	lsls	r3, r1, #7
 80001d6:	1ac0      	subs	r0, r0, r3
 80001d8:	4152      	adcs	r2, r2
 80001da:	0983      	lsrs	r3, r0, #6
 80001dc:	428b      	cmp	r3, r1
 80001de:	d301      	bcc.n	80001e4 <__udivsi3+0xb4>
 80001e0:	018b      	lsls	r3, r1, #6
 80001e2:	1ac0      	subs	r0, r0, r3
 80001e4:	4152      	adcs	r2, r2
 80001e6:	0943      	lsrs	r3, r0, #5
 80001e8:	428b      	cmp	r3, r1
 80001ea:	d301      	bcc.n	80001f0 <__udivsi3+0xc0>
 80001ec:	014b      	lsls	r3, r1, #5
 80001ee:	1ac0      	subs	r0, r0, r3
 80001f0:	4152      	adcs	r2, r2
 80001f2:	0903      	lsrs	r3, r0, #4
 80001f4:	428b      	cmp	r3, r1
 80001f6:	d301      	bcc.n	80001fc <__udivsi3+0xcc>
 80001f8:	010b      	lsls	r3, r1, #4
 80001fa:	1ac0      	subs	r0, r0, r3
 80001fc:	4152      	adcs	r2, r2
 80001fe:	08c3      	lsrs	r3, r0, #3
 8000200:	428b      	cmp	r3, r1
 8000202:	d301      	bcc.n	8000208 <__udivsi3+0xd8>
 8000204:	00cb      	lsls	r3, r1, #3
 8000206:	1ac0      	subs	r0, r0, r3
 8000208:	4152      	adcs	r2, r2
 800020a:	0883      	lsrs	r3, r0, #2
 800020c:	428b      	cmp	r3, r1
 800020e:	d301      	bcc.n	8000214 <__udivsi3+0xe4>
 8000210:	008b      	lsls	r3, r1, #2
 8000212:	1ac0      	subs	r0, r0, r3
 8000214:	4152      	adcs	r2, r2
 8000216:	0843      	lsrs	r3, r0, #1
 8000218:	428b      	cmp	r3, r1
 800021a:	d301      	bcc.n	8000220 <__udivsi3+0xf0>
 800021c:	004b      	lsls	r3, r1, #1
 800021e:	1ac0      	subs	r0, r0, r3
 8000220:	4152      	adcs	r2, r2
 8000222:	1a41      	subs	r1, r0, r1
 8000224:	d200      	bcs.n	8000228 <__udivsi3+0xf8>
 8000226:	4601      	mov	r1, r0
 8000228:	4152      	adcs	r2, r2
 800022a:	4610      	mov	r0, r2
 800022c:	4770      	bx	lr
 800022e:	e7ff      	b.n	8000230 <__udivsi3+0x100>
 8000230:	b501      	push	{r0, lr}
 8000232:	2000      	movs	r0, #0
 8000234:	f000 f8f0 	bl	8000418 <__aeabi_idiv0>
 8000238:	bd02      	pop	{r1, pc}
 800023a:	46c0      	nop			@ (mov r8, r8)

0800023c <__aeabi_uidivmod>:
 800023c:	2900      	cmp	r1, #0
 800023e:	d0f7      	beq.n	8000230 <__udivsi3+0x100>
 8000240:	e776      	b.n	8000130 <__udivsi3>
 8000242:	4770      	bx	lr

08000244 <__divsi3>:
 8000244:	4603      	mov	r3, r0
 8000246:	430b      	orrs	r3, r1
 8000248:	d47f      	bmi.n	800034a <__divsi3+0x106>
 800024a:	2200      	movs	r2, #0
 800024c:	0843      	lsrs	r3, r0, #1
 800024e:	428b      	cmp	r3, r1
 8000250:	d374      	bcc.n	800033c <__divsi3+0xf8>
 8000252:	0903      	lsrs	r3, r0, #4
 8000254:	428b      	cmp	r3, r1
 8000256:	d35f      	bcc.n	8000318 <__divsi3+0xd4>
 8000258:	0a03      	lsrs	r3, r0, #8
 800025a:	428b      	cmp	r3, r1
 800025c:	d344      	bcc.n	80002e8 <__divsi3+0xa4>
 800025e:	0b03      	lsrs	r3, r0, #12
 8000260:	428b      	cmp	r3, r1
 8000262:	d328      	bcc.n	80002b6 <__divsi3+0x72>
 8000264:	0c03      	lsrs	r3, r0, #16
 8000266:	428b      	cmp	r3, r1
 8000268:	d30d      	bcc.n	8000286 <__divsi3+0x42>
 800026a:	22ff      	movs	r2, #255	@ 0xff
 800026c:	0209      	lsls	r1, r1, #8
 800026e:	ba12      	rev	r2, r2
 8000270:	0c03      	lsrs	r3, r0, #16
 8000272:	428b      	cmp	r3, r1
 8000274:	d302      	bcc.n	800027c <__divsi3+0x38>
 8000276:	1212      	asrs	r2, r2, #8
 8000278:	0209      	lsls	r1, r1, #8
 800027a:	d065      	beq.n	8000348 <__divsi3+0x104>
 800027c:	0b03      	lsrs	r3, r0, #12
 800027e:	428b      	cmp	r3, r1
 8000280:	d319      	bcc.n	80002b6 <__divsi3+0x72>
 8000282:	e000      	b.n	8000286 <__divsi3+0x42>
 8000284:	0a09      	lsrs	r1, r1, #8
 8000286:	0bc3      	lsrs	r3, r0, #15
 8000288:	428b      	cmp	r3, r1
 800028a:	d301      	bcc.n	8000290 <__divsi3+0x4c>
 800028c:	03cb      	lsls	r3, r1, #15
 800028e:	1ac0      	subs	r0, r0, r3
 8000290:	4152      	adcs	r2, r2
 8000292:	0b83      	lsrs	r3, r0, #14
 8000294:	428b      	cmp	r3, r1
 8000296:	d301      	bcc.n	800029c <__divsi3+0x58>
 8000298:	038b      	lsls	r3, r1, #14
 800029a:	1ac0      	subs	r0, r0, r3
 800029c:	4152      	adcs	r2, r2
 800029e:	0b43      	lsrs	r3, r0, #13
 80002a0:	428b      	cmp	r3, r1
 80002a2:	d301      	bcc.n	80002a8 <__divsi3+0x64>
 80002a4:	034b      	lsls	r3, r1, #13
 80002a6:	1ac0      	subs	r0, r0, r3
 80002a8:	4152      	adcs	r2, r2
 80002aa:	0b03      	lsrs	r3, r0, #12
 80002ac:	428b      	cmp	r3, r1
 80002ae:	d301      	bcc.n	80002b4 <__divsi3+0x70>
 80002b0:	030b      	lsls	r3, r1, #12
 80002b2:	1ac0      	subs	r0, r0, r3
 80002b4:	4152      	adcs	r2, r2
 80002b6:	0ac3      	lsrs	r3, r0, #11
 80002b8:	428b      	cmp	r3, r1
 80002ba:	d301      	bcc.n	80002c0 <__divsi3+0x7c>
 80002bc:	02cb      	lsls	r3, r1, #11
 80002be:	1ac0      	subs	r0, r0, r3
 80002c0:	4152      	adcs	r2, r2
 80002c2:	0a83      	lsrs	r3, r0, #10
 80002c4:	428b      	cmp	r3, r1
 80002c6:	d301      	bcc.n	80002cc <__divsi3+0x88>
 80002c8:	028b      	lsls	r3, r1, #10
 80002ca:	1ac0      	subs	r0, r0, r3
 80002cc:	4152      	adcs	r2, r2
 80002ce:	0a43      	lsrs	r3, r0, #9
 80002d0:	428b      	cmp	r3, r1
 80002d2:	d301      	bcc.n	80002d8 <__divsi3+0x94>
 80002d4:	024b      	lsls	r3, r1, #9
 80002d6:	1ac0      	subs	r0, r0, r3
 80002d8:	4152      	adcs	r2, r2
 80002da:	0a03      	lsrs	r3, r0, #8
 80002dc:	428b      	cmp	r3, r1
 80002de:	d301      	bcc.n	80002e4 <__divsi3+0xa0>
 80002e0:	020b      	lsls	r3, r1, #8
 80002e2:	1ac0      	subs	r0, r0, r3
 80002e4:	4152      	adcs	r2, r2
 80002e6:	d2cd      	bcs.n	8000284 <__divsi3+0x40>
 80002e8:	09c3      	lsrs	r3, r0, #7
 80002ea:	428b      	cmp	r3, r1
 80002ec:	d301      	bcc.n	80002f2 <__divsi3+0xae>
 80002ee:	01cb      	lsls	r3, r1, #7
 80002f0:	1ac0      	subs	r0, r0, r3
 80002f2:	4152      	adcs	r2, r2
 80002f4:	0983      	lsrs	r3, r0, #6
 80002f6:	428b      	cmp	r3, r1
 80002f8:	d301      	bcc.n	80002fe <__divsi3+0xba>
 80002fa:	018b      	lsls	r3, r1, #6
 80002fc:	1ac0      	subs	r0, r0, r3
 80002fe:	4152      	adcs	r2, r2
 8000300:	0943      	lsrs	r3, r0, #5
 8000302:	428b      	cmp	r3, r1
 8000304:	d301      	bcc.n	800030a <__divsi3+0xc6>
 8000306:	014b      	lsls	r3, r1, #5
 8000308:	1ac0      	subs	r0, r0, r3
 800030a:	4152      	adcs	r2, r2
 800030c:	0903      	lsrs	r3, r0, #4
 800030e:	428b      	cmp	r3, r1
 8000310:	d301      	bcc.n	8000316 <__divsi3+0xd2>
 8000312:	010b      	lsls	r3, r1, #4
 8000314:	1ac0      	subs	r0, r0, r3
 8000316:	4152      	adcs	r2, r2
 8000318:	08c3      	lsrs	r3, r0, #3
 800031a:	428b      	cmp	r3, r1
 800031c:	d301      	bcc.n	8000322 <__divsi3+0xde>
 800031e:	00cb      	lsls	r3, r1, #3
 8000320:	1ac0      	subs	r0, r0, r3
 8000322:	4152      	adcs	r2, r2
 8000324:	0883      	lsrs	r3, r0, #2
 8000326:	428b      	cmp	r3, r1
 8000328:	d301      	bcc.n	800032e <__divsi3+0xea>
 800032a:	008b      	lsls	r3, r1, #2
 800032c:	1ac0      	subs	r0, r0, r3
 800032e:	4152      	adcs	r2, r2
 8000330:	0843      	lsrs	r3, r0, #1
 8000332:	428b      	cmp	r3, r1
 8000334:	d301      	bcc.n	800033a <__divsi3+0xf6>
 8000336:	004b      	lsls	r3, r1, #1
 8000338:	1ac0      	subs	r0, r0, r3
 800033a:	4152      	adcs	r2, r2
 800033c:	1a41      	subs	r1, r0, r1
 800033e:	d200      	bcs.n	8000342 <__divsi3+0xfe>
 8000340:	4601      	mov	r1, r0
 8000342:	4152      	adcs	r2, r2
 8000344:	4610      	mov	r0, r2
 8000346:	4770      	bx	lr
 8000348:	e05d      	b.n	8000406 <__divsi3+0x1c2>
 800034a:	0fca      	lsrs	r2, r1, #31
 800034c:	d000      	beq.n	8000350 <__divsi3+0x10c>
 800034e:	4249      	negs	r1, r1
 8000350:	1003      	asrs	r3, r0, #32
 8000352:	d300      	bcc.n	8000356 <__divsi3+0x112>
 8000354:	4240      	negs	r0, r0
 8000356:	4053      	eors	r3, r2
 8000358:	2200      	movs	r2, #0
 800035a:	469c      	mov	ip, r3
 800035c:	0903      	lsrs	r3, r0, #4
 800035e:	428b      	cmp	r3, r1
 8000360:	d32d      	bcc.n	80003be <__divsi3+0x17a>
 8000362:	0a03      	lsrs	r3, r0, #8
 8000364:	428b      	cmp	r3, r1
 8000366:	d312      	bcc.n	800038e <__divsi3+0x14a>
 8000368:	22fc      	movs	r2, #252	@ 0xfc
 800036a:	0189      	lsls	r1, r1, #6
 800036c:	ba12      	rev	r2, r2
 800036e:	0a03      	lsrs	r3, r0, #8
 8000370:	428b      	cmp	r3, r1
 8000372:	d30c      	bcc.n	800038e <__divsi3+0x14a>
 8000374:	0189      	lsls	r1, r1, #6
 8000376:	1192      	asrs	r2, r2, #6
 8000378:	428b      	cmp	r3, r1
 800037a:	d308      	bcc.n	800038e <__divsi3+0x14a>
 800037c:	0189      	lsls	r1, r1, #6
 800037e:	1192      	asrs	r2, r2, #6
 8000380:	428b      	cmp	r3, r1
 8000382:	d304      	bcc.n	800038e <__divsi3+0x14a>
 8000384:	0189      	lsls	r1, r1, #6
 8000386:	d03a      	beq.n	80003fe <__divsi3+0x1ba>
 8000388:	1192      	asrs	r2, r2, #6
 800038a:	e000      	b.n	800038e <__divsi3+0x14a>
 800038c:	0989      	lsrs	r1, r1, #6
 800038e:	09c3      	lsrs	r3, r0, #7
 8000390:	428b      	cmp	r3, r1
 8000392:	d301      	bcc.n	8000398 <__divsi3+0x154>
 8000394:	01cb      	lsls	r3, r1, #7
 8000396:	1ac0      	subs	r0, r0, r3
 8000398:	4152      	adcs	r2, r2
 800039a:	0983      	lsrs	r3, r0, #6
 800039c:	428b      	cmp	r3, r1
 800039e:	d301      	bcc.n	80003a4 <__divsi3+0x160>
 80003a0:	018b      	lsls	r3, r1, #6
 80003a2:	1ac0      	subs	r0, r0, r3
 80003a4:	4152      	adcs	r2, r2
 80003a6:	0943      	lsrs	r3, r0, #5
 80003a8:	428b      	cmp	r3, r1
 80003aa:	d301      	bcc.n	80003b0 <__divsi3+0x16c>
 80003ac:	014b      	lsls	r3, r1, #5
 80003ae:	1ac0      	subs	r0, r0, r3
 80003b0:	4152      	adcs	r2, r2
 80003b2:	0903      	lsrs	r3, r0, #4
 80003b4:	428b      	cmp	r3, r1
 80003b6:	d301      	bcc.n	80003bc <__divsi3+0x178>
 80003b8:	010b      	lsls	r3, r1, #4
 80003ba:	1ac0      	subs	r0, r0, r3
 80003bc:	4152      	adcs	r2, r2
 80003be:	08c3      	lsrs	r3, r0, #3
 80003c0:	428b      	cmp	r3, r1
 80003c2:	d301      	bcc.n	80003c8 <__divsi3+0x184>
 80003c4:	00cb      	lsls	r3, r1, #3
 80003c6:	1ac0      	subs	r0, r0, r3
 80003c8:	4152      	adcs	r2, r2
 80003ca:	0883      	lsrs	r3, r0, #2
 80003cc:	428b      	cmp	r3, r1
 80003ce:	d301      	bcc.n	80003d4 <__divsi3+0x190>
 80003d0:	008b      	lsls	r3, r1, #2
 80003d2:	1ac0      	subs	r0, r0, r3
 80003d4:	4152      	adcs	r2, r2
 80003d6:	d2d9      	bcs.n	800038c <__divsi3+0x148>
 80003d8:	0843      	lsrs	r3, r0, #1
 80003da:	428b      	cmp	r3, r1
 80003dc:	d301      	bcc.n	80003e2 <__divsi3+0x19e>
 80003de:	004b      	lsls	r3, r1, #1
 80003e0:	1ac0      	subs	r0, r0, r3
 80003e2:	4152      	adcs	r2, r2
 80003e4:	1a41      	subs	r1, r0, r1
 80003e6:	d200      	bcs.n	80003ea <__divsi3+0x1a6>
 80003e8:	4601      	mov	r1, r0
 80003ea:	4663      	mov	r3, ip
 80003ec:	4152      	adcs	r2, r2
 80003ee:	105b      	asrs	r3, r3, #1
 80003f0:	4610      	mov	r0, r2
 80003f2:	d301      	bcc.n	80003f8 <__divsi3+0x1b4>
 80003f4:	4240      	negs	r0, r0
 80003f6:	2b00      	cmp	r3, #0
 80003f8:	d500      	bpl.n	80003fc <__divsi3+0x1b8>
 80003fa:	4249      	negs	r1, r1
 80003fc:	4770      	bx	lr
 80003fe:	4663      	mov	r3, ip
 8000400:	105b      	asrs	r3, r3, #1
 8000402:	d300      	bcc.n	8000406 <__divsi3+0x1c2>
 8000404:	4240      	negs	r0, r0
 8000406:	b501      	push	{r0, lr}
 8000408:	2000      	movs	r0, #0
 800040a:	f000 f805 	bl	8000418 <__aeabi_idiv0>
 800040e:	bd02      	pop	{r1, pc}

08000410 <__aeabi_idivmod>:
 8000410:	2900      	cmp	r1, #0
 8000412:	d0f8      	beq.n	8000406 <__divsi3+0x1c2>
 8000414:	e716      	b.n	8000244 <__divsi3>
 8000416:	4770      	bx	lr

08000418 <__aeabi_idiv0>:
 8000418:	4770      	bx	lr
 800041a:	46c0      	nop			@ (mov r8, r8)

0800041c <__aeabi_cfrcmple>:
 800041c:	4684      	mov	ip, r0
 800041e:	0008      	movs	r0, r1
 8000420:	4661      	mov	r1, ip
 8000422:	e7ff      	b.n	8000424 <__aeabi_cfcmpeq>

08000424 <__aeabi_cfcmpeq>:
 8000424:	b51f      	push	{r0, r1, r2, r3, r4, lr}
 8000426:	f000 fb55 	bl	8000ad4 <__lesf2>
 800042a:	2800      	cmp	r0, #0
 800042c:	d401      	bmi.n	8000432 <__aeabi_cfcmpeq+0xe>
 800042e:	2100      	movs	r1, #0
 8000430:	42c8      	cmn	r0, r1
 8000432:	bd1f      	pop	{r0, r1, r2, r3, r4, pc}

08000434 <__aeabi_fcmpeq>:
 8000434:	b510      	push	{r4, lr}
 8000436:	f000 fad5 	bl	80009e4 <__eqsf2>
 800043a:	4240      	negs	r0, r0
 800043c:	3001      	adds	r0, #1
 800043e:	bd10      	pop	{r4, pc}

08000440 <__aeabi_fcmplt>:
 8000440:	b510      	push	{r4, lr}
 8000442:	f000 fb47 	bl	8000ad4 <__lesf2>
 8000446:	2800      	cmp	r0, #0
 8000448:	db01      	blt.n	800044e <__aeabi_fcmplt+0xe>
 800044a:	2000      	movs	r0, #0
 800044c:	bd10      	pop	{r4, pc}
 800044e:	2001      	movs	r0, #1
 8000450:	bd10      	pop	{r4, pc}
 8000452:	46c0      	nop			@ (mov r8, r8)

08000454 <__aeabi_fcmple>:
 8000454:	b510      	push	{r4, lr}
 8000456:	f000 fb3d 	bl	8000ad4 <__lesf2>
 800045a:	2800      	cmp	r0, #0
 800045c:	dd01      	ble.n	8000462 <__aeabi_fcmple+0xe>
 800045e:	2000      	movs	r0, #0
 8000460:	bd10      	pop	{r4, pc}
 8000462:	2001      	movs	r0, #1
 8000464:	bd10      	pop	{r4, pc}
 8000466:	46c0      	nop			@ (mov r8, r8)

08000468 <__aeabi_fcmpgt>:
 8000468:	b510      	push	{r4, lr}
 800046a:	f000 fae3 	bl	8000a34 <__gesf2>
 800046e:	2800      	cmp	r0, #0
 8000470:	dc01      	bgt.n	8000476 <__aeabi_fcmpgt+0xe>
 8000472:	2000      	movs	r0, #0
 8000474:	bd10      	pop	{r4, pc}
 8000476:	2001      	movs	r0, #1
 8000478:	bd10      	pop	{r4, pc}
 800047a:	46c0      	nop			@ (mov r8, r8)

0800047c <__aeabi_fcmpge>:
 800047c:	b510      	push	{r4, lr}
 800047e:	f000 fad9 	bl	8000a34 <__gesf2>
 8000482:	2800      	cmp	r0, #0
 8000484:	da01      	bge.n	800048a <__aeabi_fcmpge+0xe>
 8000486:	2000      	movs	r0, #0
 8000488:	bd10      	pop	{r4, pc}
 800048a:	2001      	movs	r0, #1
 800048c:	bd10      	pop	{r4, pc}
 800048e:	46c0      	nop			@ (mov r8, r8)

08000490 <__aeabi_fadd>:
 8000490:	b5f8      	push	{r3, r4, r5, r6, r7, lr}
 8000492:	46ce      	mov	lr, r9
 8000494:	4647      	mov	r7, r8
 8000496:	0243      	lsls	r3, r0, #9
 8000498:	0a5a      	lsrs	r2, r3, #9
 800049a:	024e      	lsls	r6, r1, #9
 800049c:	0045      	lsls	r5, r0, #1
 800049e:	0fc4      	lsrs	r4, r0, #31
 80004a0:	0048      	lsls	r0, r1, #1
 80004a2:	4691      	mov	r9, r2
 80004a4:	0e2d      	lsrs	r5, r5, #24
 80004a6:	0a72      	lsrs	r2, r6, #9
 80004a8:	0e00      	lsrs	r0, r0, #24
 80004aa:	4694      	mov	ip, r2
 80004ac:	b580      	push	{r7, lr}
 80004ae:	099b      	lsrs	r3, r3, #6
 80004b0:	0fc9      	lsrs	r1, r1, #31
 80004b2:	09b6      	lsrs	r6, r6, #6
 80004b4:	1a2a      	subs	r2, r5, r0
 80004b6:	428c      	cmp	r4, r1
 80004b8:	d021      	beq.n	80004fe <__aeabi_fadd+0x6e>
 80004ba:	2a00      	cmp	r2, #0
 80004bc:	dd0d      	ble.n	80004da <__aeabi_fadd+0x4a>
 80004be:	2800      	cmp	r0, #0
 80004c0:	d12d      	bne.n	800051e <__aeabi_fadd+0x8e>
 80004c2:	2e00      	cmp	r6, #0
 80004c4:	d100      	bne.n	80004c8 <__aeabi_fadd+0x38>
 80004c6:	e08d      	b.n	80005e4 <__aeabi_fadd+0x154>
 80004c8:	1e51      	subs	r1, r2, #1
 80004ca:	2a01      	cmp	r2, #1
 80004cc:	d100      	bne.n	80004d0 <__aeabi_fadd+0x40>
 80004ce:	e11d      	b.n	800070c <__aeabi_fadd+0x27c>
 80004d0:	2aff      	cmp	r2, #255	@ 0xff
 80004d2:	d100      	bne.n	80004d6 <__aeabi_fadd+0x46>
 80004d4:	e0ab      	b.n	800062e <__aeabi_fadd+0x19e>
 80004d6:	000a      	movs	r2, r1
 80004d8:	e027      	b.n	800052a <__aeabi_fadd+0x9a>
 80004da:	2a00      	cmp	r2, #0
 80004dc:	d04d      	beq.n	800057a <__aeabi_fadd+0xea>
 80004de:	1b42      	subs	r2, r0, r5
 80004e0:	2d00      	cmp	r5, #0
 80004e2:	d000      	beq.n	80004e6 <__aeabi_fadd+0x56>
 80004e4:	e0cc      	b.n	8000680 <__aeabi_fadd+0x1f0>
 80004e6:	2b00      	cmp	r3, #0
 80004e8:	d100      	bne.n	80004ec <__aeabi_fadd+0x5c>
 80004ea:	e079      	b.n	80005e0 <__aeabi_fadd+0x150>
 80004ec:	1e54      	subs	r4, r2, #1
 80004ee:	2a01      	cmp	r2, #1
 80004f0:	d100      	bne.n	80004f4 <__aeabi_fadd+0x64>
 80004f2:	e128      	b.n	8000746 <__aeabi_fadd+0x2b6>
 80004f4:	2aff      	cmp	r2, #255	@ 0xff
 80004f6:	d100      	bne.n	80004fa <__aeabi_fadd+0x6a>
 80004f8:	e097      	b.n	800062a <__aeabi_fadd+0x19a>
 80004fa:	0022      	movs	r2, r4
 80004fc:	e0c5      	b.n	800068a <__aeabi_fadd+0x1fa>
 80004fe:	2a00      	cmp	r2, #0
 8000500:	dc00      	bgt.n	8000504 <__aeabi_fadd+0x74>
 8000502:	e096      	b.n	8000632 <__aeabi_fadd+0x1a2>
 8000504:	2800      	cmp	r0, #0
 8000506:	d04f      	beq.n	80005a8 <__aeabi_fadd+0x118>
 8000508:	2dff      	cmp	r5, #255	@ 0xff
 800050a:	d100      	bne.n	800050e <__aeabi_fadd+0x7e>
 800050c:	e08f      	b.n	800062e <__aeabi_fadd+0x19e>
 800050e:	2180      	movs	r1, #128	@ 0x80
 8000510:	04c9      	lsls	r1, r1, #19
 8000512:	430e      	orrs	r6, r1
 8000514:	2a1b      	cmp	r2, #27
 8000516:	dd51      	ble.n	80005bc <__aeabi_fadd+0x12c>
 8000518:	002a      	movs	r2, r5
 800051a:	3301      	adds	r3, #1
 800051c:	e018      	b.n	8000550 <__aeabi_fadd+0xc0>
 800051e:	2dff      	cmp	r5, #255	@ 0xff
 8000520:	d100      	bne.n	8000524 <__aeabi_fadd+0x94>
 8000522:	e084      	b.n	800062e <__aeabi_fadd+0x19e>
 8000524:	2180      	movs	r1, #128	@ 0x80
 8000526:	04c9      	lsls	r1, r1, #19
 8000528:	430e      	orrs	r6, r1
 800052a:	2101      	movs	r1, #1
 800052c:	2a1b      	cmp	r2, #27
 800052e:	dc08      	bgt.n	8000542 <__aeabi_fadd+0xb2>
 8000530:	0031      	movs	r1, r6
 8000532:	2020      	movs	r0, #32
 8000534:	40d1      	lsrs	r1, r2
 8000536:	1a82      	subs	r2, r0, r2
 8000538:	4096      	lsls	r6, r2
 800053a:	0032      	movs	r2, r6
 800053c:	1e50      	subs	r0, r2, #1
 800053e:	4182      	sbcs	r2, r0
 8000540:	4311      	orrs	r1, r2
 8000542:	1a5b      	subs	r3, r3, r1
 8000544:	015a      	lsls	r2, r3, #5
 8000546:	d459      	bmi.n	80005fc <__aeabi_fadd+0x16c>
 8000548:	2107      	movs	r1, #7
 800054a:	002a      	movs	r2, r5
 800054c:	4019      	ands	r1, r3
 800054e:	d049      	beq.n	80005e4 <__aeabi_fadd+0x154>
 8000550:	210f      	movs	r1, #15
 8000552:	4019      	ands	r1, r3
 8000554:	2904      	cmp	r1, #4
 8000556:	d000      	beq.n	800055a <__aeabi_fadd+0xca>
 8000558:	3304      	adds	r3, #4
 800055a:	0159      	lsls	r1, r3, #5
 800055c:	d542      	bpl.n	80005e4 <__aeabi_fadd+0x154>
 800055e:	1c50      	adds	r0, r2, #1
 8000560:	2afe      	cmp	r2, #254	@ 0xfe
 8000562:	d03a      	beq.n	80005da <__aeabi_fadd+0x14a>
 8000564:	019b      	lsls	r3, r3, #6
 8000566:	b2c0      	uxtb	r0, r0
 8000568:	0a5b      	lsrs	r3, r3, #9
 800056a:	05c0      	lsls	r0, r0, #23
 800056c:	4318      	orrs	r0, r3
 800056e:	07e4      	lsls	r4, r4, #31
 8000570:	4320      	orrs	r0, r4
 8000572:	bcc0      	pop	{r6, r7}
 8000574:	46b9      	mov	r9, r7
 8000576:	46b0      	mov	r8, r6
 8000578:	bdf8      	pop	{r3, r4, r5, r6, r7, pc}
 800057a:	20fe      	movs	r0, #254	@ 0xfe
 800057c:	4680      	mov	r8, r0
 800057e:	1c6f      	adds	r7, r5, #1
 8000580:	0038      	movs	r0, r7
 8000582:	4647      	mov	r7, r8
 8000584:	4207      	tst	r7, r0
 8000586:	d000      	beq.n	800058a <__aeabi_fadd+0xfa>
 8000588:	e08e      	b.n	80006a8 <__aeabi_fadd+0x218>
 800058a:	2d00      	cmp	r5, #0
 800058c:	d000      	beq.n	8000590 <__aeabi_fadd+0x100>
 800058e:	e0b4      	b.n	80006fa <__aeabi_fadd+0x26a>
 8000590:	2b00      	cmp	r3, #0
 8000592:	d100      	bne.n	8000596 <__aeabi_fadd+0x106>
 8000594:	e0db      	b.n	800074e <__aeabi_fadd+0x2be>
 8000596:	2e00      	cmp	r6, #0
 8000598:	d06c      	beq.n	8000674 <__aeabi_fadd+0x1e4>
 800059a:	1b98      	subs	r0, r3, r6
 800059c:	0145      	lsls	r5, r0, #5
 800059e:	d400      	bmi.n	80005a2 <__aeabi_fadd+0x112>
 80005a0:	e0f7      	b.n	8000792 <__aeabi_fadd+0x302>
 80005a2:	000c      	movs	r4, r1
 80005a4:	1af3      	subs	r3, r6, r3
 80005a6:	e03d      	b.n	8000624 <__aeabi_fadd+0x194>
 80005a8:	2e00      	cmp	r6, #0
 80005aa:	d01b      	beq.n	80005e4 <__aeabi_fadd+0x154>
 80005ac:	1e51      	subs	r1, r2, #1
 80005ae:	2a01      	cmp	r2, #1
 80005b0:	d100      	bne.n	80005b4 <__aeabi_fadd+0x124>
 80005b2:	e082      	b.n	80006ba <__aeabi_fadd+0x22a>
 80005b4:	2aff      	cmp	r2, #255	@ 0xff
 80005b6:	d03a      	beq.n	800062e <__aeabi_fadd+0x19e>
 80005b8:	000a      	movs	r2, r1
 80005ba:	e7ab      	b.n	8000514 <__aeabi_fadd+0x84>
 80005bc:	0031      	movs	r1, r6
 80005be:	2020      	movs	r0, #32
 80005c0:	40d1      	lsrs	r1, r2
 80005c2:	1a82      	subs	r2, r0, r2
 80005c4:	4096      	lsls	r6, r2
 80005c6:	0032      	movs	r2, r6
 80005c8:	1e50      	subs	r0, r2, #1
 80005ca:	4182      	sbcs	r2, r0
 80005cc:	430a      	orrs	r2, r1
 80005ce:	189b      	adds	r3, r3, r2
 80005d0:	015a      	lsls	r2, r3, #5
 80005d2:	d5b9      	bpl.n	8000548 <__aeabi_fadd+0xb8>
 80005d4:	1c6a      	adds	r2, r5, #1
 80005d6:	2dfe      	cmp	r5, #254	@ 0xfe
 80005d8:	d175      	bne.n	80006c6 <__aeabi_fadd+0x236>
 80005da:	20ff      	movs	r0, #255	@ 0xff
 80005dc:	2300      	movs	r3, #0
 80005de:	e7c4      	b.n	800056a <__aeabi_fadd+0xda>
 80005e0:	000c      	movs	r4, r1
 80005e2:	0033      	movs	r3, r6
 80005e4:	08db      	lsrs	r3, r3, #3
 80005e6:	2aff      	cmp	r2, #255	@ 0xff
 80005e8:	d146      	bne.n	8000678 <__aeabi_fadd+0x1e8>
 80005ea:	2b00      	cmp	r3, #0
 80005ec:	d0f5      	beq.n	80005da <__aeabi_fadd+0x14a>
 80005ee:	2280      	movs	r2, #128	@ 0x80
 80005f0:	03d2      	lsls	r2, r2, #15
 80005f2:	4313      	orrs	r3, r2
 80005f4:	025b      	lsls	r3, r3, #9
 80005f6:	20ff      	movs	r0, #255	@ 0xff
 80005f8:	0a5b      	lsrs	r3, r3, #9
 80005fa:	e7b6      	b.n	800056a <__aeabi_fadd+0xda>
 80005fc:	019f      	lsls	r7, r3, #6
 80005fe:	09bf      	lsrs	r7, r7, #6
 8000600:	0038      	movs	r0, r7
 8000602:	f000 fe45 	bl	8001290 <__clzsi2>
 8000606:	3805      	subs	r0, #5
 8000608:	4087      	lsls	r7, r0
 800060a:	4285      	cmp	r5, r0
 800060c:	dc24      	bgt.n	8000658 <__aeabi_fadd+0x1c8>
 800060e:	003b      	movs	r3, r7
 8000610:	2120      	movs	r1, #32
 8000612:	1b42      	subs	r2, r0, r5
 8000614:	3201      	adds	r2, #1
 8000616:	40d3      	lsrs	r3, r2
 8000618:	1a8a      	subs	r2, r1, r2
 800061a:	4097      	lsls	r7, r2
 800061c:	1e7a      	subs	r2, r7, #1
 800061e:	4197      	sbcs	r7, r2
 8000620:	2200      	movs	r2, #0
 8000622:	433b      	orrs	r3, r7
 8000624:	0759      	lsls	r1, r3, #29
 8000626:	d193      	bne.n	8000550 <__aeabi_fadd+0xc0>
 8000628:	e797      	b.n	800055a <__aeabi_fadd+0xca>
 800062a:	000c      	movs	r4, r1
 800062c:	0033      	movs	r3, r6
 800062e:	08db      	lsrs	r3, r3, #3
 8000630:	e7db      	b.n	80005ea <__aeabi_fadd+0x15a>
 8000632:	2a00      	cmp	r2, #0
 8000634:	d014      	beq.n	8000660 <__aeabi_fadd+0x1d0>
 8000636:	1b42      	subs	r2, r0, r5
 8000638:	2d00      	cmp	r5, #0
 800063a:	d14b      	bne.n	80006d4 <__aeabi_fadd+0x244>
 800063c:	2b00      	cmp	r3, #0
 800063e:	d0d0      	beq.n	80005e2 <__aeabi_fadd+0x152>
 8000640:	1e51      	subs	r1, r2, #1
 8000642:	2a01      	cmp	r2, #1
 8000644:	d100      	bne.n	8000648 <__aeabi_fadd+0x1b8>
 8000646:	e09e      	b.n	8000786 <__aeabi_fadd+0x2f6>
 8000648:	2aff      	cmp	r2, #255	@ 0xff
 800064a:	d0ef      	beq.n	800062c <__aeabi_fadd+0x19c>
 800064c:	000a      	movs	r2, r1
 800064e:	2a1b      	cmp	r2, #27
 8000650:	dd5f      	ble.n	8000712 <__aeabi_fadd+0x282>
 8000652:	0002      	movs	r2, r0
 8000654:	1c73      	adds	r3, r6, #1
 8000656:	e77b      	b.n	8000550 <__aeabi_fadd+0xc0>
 8000658:	4b50      	ldr	r3, [pc, #320]	@ (800079c <__aeabi_fadd+0x30c>)
 800065a:	1a2a      	subs	r2, r5, r0
 800065c:	403b      	ands	r3, r7
 800065e:	e7e1      	b.n	8000624 <__aeabi_fadd+0x194>
 8000660:	21fe      	movs	r1, #254	@ 0xfe
 8000662:	1c6a      	adds	r2, r5, #1
 8000664:	4211      	tst	r1, r2
 8000666:	d13b      	bne.n	80006e0 <__aeabi_fadd+0x250>
 8000668:	2d00      	cmp	r5, #0
 800066a:	d15d      	bne.n	8000728 <__aeabi_fadd+0x298>
 800066c:	2b00      	cmp	r3, #0
 800066e:	d07f      	beq.n	8000770 <__aeabi_fadd+0x2e0>
 8000670:	2e00      	cmp	r6, #0
 8000672:	d17f      	bne.n	8000774 <__aeabi_fadd+0x2e4>
 8000674:	2200      	movs	r2, #0
 8000676:	08db      	lsrs	r3, r3, #3
 8000678:	025b      	lsls	r3, r3, #9
 800067a:	0a5b      	lsrs	r3, r3, #9
 800067c:	b2d0      	uxtb	r0, r2
 800067e:	e774      	b.n	800056a <__aeabi_fadd+0xda>
 8000680:	28ff      	cmp	r0, #255	@ 0xff
 8000682:	d0d2      	beq.n	800062a <__aeabi_fadd+0x19a>
 8000684:	2480      	movs	r4, #128	@ 0x80
 8000686:	04e4      	lsls	r4, r4, #19
 8000688:	4323      	orrs	r3, r4
 800068a:	2401      	movs	r4, #1
 800068c:	2a1b      	cmp	r2, #27
 800068e:	dc07      	bgt.n	80006a0 <__aeabi_fadd+0x210>
 8000690:	001c      	movs	r4, r3
 8000692:	2520      	movs	r5, #32
 8000694:	40d4      	lsrs	r4, r2
 8000696:	1aaa      	subs	r2, r5, r2
 8000698:	4093      	lsls	r3, r2
 800069a:	1e5a      	subs	r2, r3, #1
 800069c:	4193      	sbcs	r3, r2
 800069e:	431c      	orrs	r4, r3
 80006a0:	1b33      	subs	r3, r6, r4
 80006a2:	0005      	movs	r5, r0
 80006a4:	000c      	movs	r4, r1
 80006a6:	e74d      	b.n	8000544 <__aeabi_fadd+0xb4>
 80006a8:	1b9f      	subs	r7, r3, r6
 80006aa:	017a      	lsls	r2, r7, #5
 80006ac:	d422      	bmi.n	80006f4 <__aeabi_fadd+0x264>
 80006ae:	2f00      	cmp	r7, #0
 80006b0:	d1a6      	bne.n	8000600 <__aeabi_fadd+0x170>
 80006b2:	2400      	movs	r4, #0
 80006b4:	2000      	movs	r0, #0
 80006b6:	2300      	movs	r3, #0
 80006b8:	e757      	b.n	800056a <__aeabi_fadd+0xda>
 80006ba:	199b      	adds	r3, r3, r6
 80006bc:	2501      	movs	r5, #1
 80006be:	3201      	adds	r2, #1
 80006c0:	0159      	lsls	r1, r3, #5
 80006c2:	d400      	bmi.n	80006c6 <__aeabi_fadd+0x236>
 80006c4:	e740      	b.n	8000548 <__aeabi_fadd+0xb8>
 80006c6:	2101      	movs	r1, #1
 80006c8:	4835      	ldr	r0, [pc, #212]	@ (80007a0 <__aeabi_fadd+0x310>)
 80006ca:	4019      	ands	r1, r3
 80006cc:	085b      	lsrs	r3, r3, #1
 80006ce:	4003      	ands	r3, r0
 80006d0:	430b      	orrs	r3, r1
 80006d2:	e7a7      	b.n	8000624 <__aeabi_fadd+0x194>
 80006d4:	28ff      	cmp	r0, #255	@ 0xff
 80006d6:	d0a9      	beq.n	800062c <__aeabi_fadd+0x19c>
 80006d8:	2180      	movs	r1, #128	@ 0x80
 80006da:	04c9      	lsls	r1, r1, #19
 80006dc:	430b      	orrs	r3, r1
 80006de:	e7b6      	b.n	800064e <__aeabi_fadd+0x1be>
 80006e0:	2aff      	cmp	r2, #255	@ 0xff
 80006e2:	d100      	bne.n	80006e6 <__aeabi_fadd+0x256>
 80006e4:	e779      	b.n	80005da <__aeabi_fadd+0x14a>
 80006e6:	199b      	adds	r3, r3, r6
 80006e8:	085b      	lsrs	r3, r3, #1
 80006ea:	0759      	lsls	r1, r3, #29
 80006ec:	d000      	beq.n	80006f0 <__aeabi_fadd+0x260>
 80006ee:	e72f      	b.n	8000550 <__aeabi_fadd+0xc0>
 80006f0:	08db      	lsrs	r3, r3, #3
 80006f2:	e7c1      	b.n	8000678 <__aeabi_fadd+0x1e8>
 80006f4:	000c      	movs	r4, r1
 80006f6:	1af7      	subs	r7, r6, r3
 80006f8:	e782      	b.n	8000600 <__aeabi_fadd+0x170>
 80006fa:	2b00      	cmp	r3, #0
 80006fc:	d12c      	bne.n	8000758 <__aeabi_fadd+0x2c8>
 80006fe:	2e00      	cmp	r6, #0
 8000700:	d193      	bne.n	800062a <__aeabi_fadd+0x19a>
 8000702:	2380      	movs	r3, #128	@ 0x80
 8000704:	2400      	movs	r4, #0
 8000706:	20ff      	movs	r0, #255	@ 0xff
 8000708:	03db      	lsls	r3, r3, #15
 800070a:	e72e      	b.n	800056a <__aeabi_fadd+0xda>
 800070c:	2501      	movs	r5, #1
 800070e:	1b9b      	subs	r3, r3, r6
 8000710:	e718      	b.n	8000544 <__aeabi_fadd+0xb4>
 8000712:	0019      	movs	r1, r3
 8000714:	2520      	movs	r5, #32
 8000716:	40d1      	lsrs	r1, r2
 8000718:	1aaa      	subs	r2, r5, r2
 800071a:	4093      	lsls	r3, r2
 800071c:	1e5a      	subs	r2, r3, #1
 800071e:	4193      	sbcs	r3, r2
 8000720:	430b      	orrs	r3, r1
 8000722:	0005      	movs	r5, r0
 8000724:	199b      	adds	r3, r3, r6
 8000726:	e753      	b.n	80005d0 <__aeabi_fadd+0x140>
 8000728:	2b00      	cmp	r3, #0
 800072a:	d100      	bne.n	800072e <__aeabi_fadd+0x29e>
 800072c:	e77e      	b.n	800062c <__aeabi_fadd+0x19c>
 800072e:	2e00      	cmp	r6, #0
 8000730:	d100      	bne.n	8000734 <__aeabi_fadd+0x2a4>
 8000732:	e77c      	b.n	800062e <__aeabi_fadd+0x19e>
 8000734:	2280      	movs	r2, #128	@ 0x80
 8000736:	03d2      	lsls	r2, r2, #15
 8000738:	4591      	cmp	r9, r2
 800073a:	d302      	bcc.n	8000742 <__aeabi_fadd+0x2b2>
 800073c:	4594      	cmp	ip, r2
 800073e:	d200      	bcs.n	8000742 <__aeabi_fadd+0x2b2>
 8000740:	0033      	movs	r3, r6
 8000742:	08db      	lsrs	r3, r3, #3
 8000744:	e753      	b.n	80005ee <__aeabi_fadd+0x15e>
 8000746:	000c      	movs	r4, r1
 8000748:	1af3      	subs	r3, r6, r3
 800074a:	3501      	adds	r5, #1
 800074c:	e6fa      	b.n	8000544 <__aeabi_fadd+0xb4>
 800074e:	2e00      	cmp	r6, #0
 8000750:	d0af      	beq.n	80006b2 <__aeabi_fadd+0x222>
 8000752:	000c      	movs	r4, r1
 8000754:	0033      	movs	r3, r6
 8000756:	e78d      	b.n	8000674 <__aeabi_fadd+0x1e4>
 8000758:	2e00      	cmp	r6, #0
 800075a:	d100      	bne.n	800075e <__aeabi_fadd+0x2ce>
 800075c:	e767      	b.n	800062e <__aeabi_fadd+0x19e>
 800075e:	2280      	movs	r2, #128	@ 0x80
 8000760:	03d2      	lsls	r2, r2, #15
 8000762:	4591      	cmp	r9, r2
 8000764:	d3ed      	bcc.n	8000742 <__aeabi_fadd+0x2b2>
 8000766:	4594      	cmp	ip, r2
 8000768:	d2eb      	bcs.n	8000742 <__aeabi_fadd+0x2b2>
 800076a:	000c      	movs	r4, r1
 800076c:	0033      	movs	r3, r6
 800076e:	e7e8      	b.n	8000742 <__aeabi_fadd+0x2b2>
 8000770:	0033      	movs	r3, r6
 8000772:	e77f      	b.n	8000674 <__aeabi_fadd+0x1e4>
 8000774:	199b      	adds	r3, r3, r6
 8000776:	2200      	movs	r2, #0
 8000778:	0159      	lsls	r1, r3, #5
 800077a:	d5b9      	bpl.n	80006f0 <__aeabi_fadd+0x260>
 800077c:	4a07      	ldr	r2, [pc, #28]	@ (800079c <__aeabi_fadd+0x30c>)
 800077e:	4013      	ands	r3, r2
 8000780:	08db      	lsrs	r3, r3, #3
 8000782:	2201      	movs	r2, #1
 8000784:	e778      	b.n	8000678 <__aeabi_fadd+0x1e8>
 8000786:	199b      	adds	r3, r3, r6
 8000788:	3201      	adds	r2, #1
 800078a:	3501      	adds	r5, #1
 800078c:	0159      	lsls	r1, r3, #5
 800078e:	d49a      	bmi.n	80006c6 <__aeabi_fadd+0x236>
 8000790:	e6da      	b.n	8000548 <__aeabi_fadd+0xb8>
 8000792:	1e03      	subs	r3, r0, #0
 8000794:	d08d      	beq.n	80006b2 <__aeabi_fadd+0x222>
 8000796:	08db      	lsrs	r3, r3, #3
 8000798:	e76e      	b.n	8000678 <__aeabi_fadd+0x1e8>
 800079a:	46c0      	nop			@ (mov r8, r8)
 800079c:	fbffffff 	.word	0xfbffffff
 80007a0:	7dffffff 	.word	0x7dffffff

080007a4 <__aeabi_fdiv>:
 80007a4:	b5f0      	push	{r4, r5, r6, r7, lr}
 80007a6:	464f      	mov	r7, r9
 80007a8:	4646      	mov	r6, r8
 80007aa:	46d6      	mov	lr, sl
 80007ac:	0244      	lsls	r4, r0, #9
 80007ae:	b5c0      	push	{r6, r7, lr}
 80007b0:	0047      	lsls	r7, r0, #1
 80007b2:	1c0e      	adds	r6, r1, #0
 80007b4:	0a64      	lsrs	r4, r4, #9
 80007b6:	0e3f      	lsrs	r7, r7, #24
 80007b8:	0fc5      	lsrs	r5, r0, #31
 80007ba:	2f00      	cmp	r7, #0
 80007bc:	d03c      	beq.n	8000838 <__aeabi_fdiv+0x94>
 80007be:	2fff      	cmp	r7, #255	@ 0xff
 80007c0:	d042      	beq.n	8000848 <__aeabi_fdiv+0xa4>
 80007c2:	2300      	movs	r3, #0
 80007c4:	2280      	movs	r2, #128	@ 0x80
 80007c6:	4699      	mov	r9, r3
 80007c8:	469a      	mov	sl, r3
 80007ca:	00e4      	lsls	r4, r4, #3
 80007cc:	04d2      	lsls	r2, r2, #19
 80007ce:	4314      	orrs	r4, r2
 80007d0:	3f7f      	subs	r7, #127	@ 0x7f
 80007d2:	0273      	lsls	r3, r6, #9
 80007d4:	0a5b      	lsrs	r3, r3, #9
 80007d6:	4698      	mov	r8, r3
 80007d8:	0073      	lsls	r3, r6, #1
 80007da:	0e1b      	lsrs	r3, r3, #24
 80007dc:	0ff6      	lsrs	r6, r6, #31
 80007de:	2b00      	cmp	r3, #0
 80007e0:	d01b      	beq.n	800081a <__aeabi_fdiv+0x76>
 80007e2:	2bff      	cmp	r3, #255	@ 0xff
 80007e4:	d013      	beq.n	800080e <__aeabi_fdiv+0x6a>
 80007e6:	4642      	mov	r2, r8
 80007e8:	2180      	movs	r1, #128	@ 0x80
 80007ea:	00d2      	lsls	r2, r2, #3
 80007ec:	04c9      	lsls	r1, r1, #19
 80007ee:	4311      	orrs	r1, r2
 80007f0:	4688      	mov	r8, r1
 80007f2:	2000      	movs	r0, #0
 80007f4:	3b7f      	subs	r3, #127	@ 0x7f
 80007f6:	0029      	movs	r1, r5
 80007f8:	1aff      	subs	r7, r7, r3
 80007fa:	464b      	mov	r3, r9
 80007fc:	4071      	eors	r1, r6
 80007fe:	b2c9      	uxtb	r1, r1
 8000800:	2b0f      	cmp	r3, #15
 8000802:	d900      	bls.n	8000806 <__aeabi_fdiv+0x62>
 8000804:	e0b5      	b.n	8000972 <__aeabi_fdiv+0x1ce>
 8000806:	4a74      	ldr	r2, [pc, #464]	@ (80009d8 <__aeabi_fdiv+0x234>)
 8000808:	009b      	lsls	r3, r3, #2
 800080a:	58d3      	ldr	r3, [r2, r3]
 800080c:	469f      	mov	pc, r3
 800080e:	4643      	mov	r3, r8
 8000810:	2b00      	cmp	r3, #0
 8000812:	d13f      	bne.n	8000894 <__aeabi_fdiv+0xf0>
 8000814:	3fff      	subs	r7, #255	@ 0xff
 8000816:	3302      	adds	r3, #2
 8000818:	e003      	b.n	8000822 <__aeabi_fdiv+0x7e>
 800081a:	4643      	mov	r3, r8
 800081c:	2b00      	cmp	r3, #0
 800081e:	d12d      	bne.n	800087c <__aeabi_fdiv+0xd8>
 8000820:	2301      	movs	r3, #1
 8000822:	0029      	movs	r1, r5
 8000824:	464a      	mov	r2, r9
 8000826:	4071      	eors	r1, r6
 8000828:	b2c9      	uxtb	r1, r1
 800082a:	431a      	orrs	r2, r3
 800082c:	2a0e      	cmp	r2, #14
 800082e:	d838      	bhi.n	80008a2 <__aeabi_fdiv+0xfe>
 8000830:	486a      	ldr	r0, [pc, #424]	@ (80009dc <__aeabi_fdiv+0x238>)
 8000832:	0092      	lsls	r2, r2, #2
 8000834:	5882      	ldr	r2, [r0, r2]
 8000836:	4697      	mov	pc, r2
 8000838:	2c00      	cmp	r4, #0
 800083a:	d113      	bne.n	8000864 <__aeabi_fdiv+0xc0>
 800083c:	2304      	movs	r3, #4
 800083e:	4699      	mov	r9, r3
 8000840:	3b03      	subs	r3, #3
 8000842:	2700      	movs	r7, #0
 8000844:	469a      	mov	sl, r3
 8000846:	e7c4      	b.n	80007d2 <__aeabi_fdiv+0x2e>
 8000848:	2c00      	cmp	r4, #0
 800084a:	d105      	bne.n	8000858 <__aeabi_fdiv+0xb4>
 800084c:	2308      	movs	r3, #8
 800084e:	4699      	mov	r9, r3
 8000850:	3b06      	subs	r3, #6
 8000852:	27ff      	movs	r7, #255	@ 0xff
 8000854:	469a      	mov	sl, r3
 8000856:	e7bc      	b.n	80007d2 <__aeabi_fdiv+0x2e>
 8000858:	230c      	movs	r3, #12
 800085a:	4699      	mov	r9, r3
 800085c:	3b09      	subs	r3, #9
 800085e:	27ff      	movs	r7, #255	@ 0xff
 8000860:	469a      	mov	sl, r3
 8000862:	e7b6      	b.n	80007d2 <__aeabi_fdiv+0x2e>
 8000864:	0020      	movs	r0, r4
 8000866:	f000 fd13 	bl	8001290 <__clzsi2>
 800086a:	2776      	movs	r7, #118	@ 0x76
 800086c:	1f43      	subs	r3, r0, #5
 800086e:	409c      	lsls	r4, r3
 8000870:	2300      	movs	r3, #0
 8000872:	427f      	negs	r7, r7
 8000874:	4699      	mov	r9, r3
 8000876:	469a      	mov	sl, r3
 8000878:	1a3f      	subs	r7, r7, r0
 800087a:	e7aa      	b.n	80007d2 <__aeabi_fdiv+0x2e>
 800087c:	4640      	mov	r0, r8
 800087e:	f000 fd07 	bl	8001290 <__clzsi2>
 8000882:	4642      	mov	r2, r8
 8000884:	1f43      	subs	r3, r0, #5
 8000886:	409a      	lsls	r2, r3
 8000888:	2376      	movs	r3, #118	@ 0x76
 800088a:	425b      	negs	r3, r3
 800088c:	1a1b      	subs	r3, r3, r0
 800088e:	4690      	mov	r8, r2
 8000890:	2000      	movs	r0, #0
 8000892:	e7b0      	b.n	80007f6 <__aeabi_fdiv+0x52>
 8000894:	2303      	movs	r3, #3
 8000896:	464a      	mov	r2, r9
 8000898:	431a      	orrs	r2, r3
 800089a:	4691      	mov	r9, r2
 800089c:	2003      	movs	r0, #3
 800089e:	33fc      	adds	r3, #252	@ 0xfc
 80008a0:	e7a9      	b.n	80007f6 <__aeabi_fdiv+0x52>
 80008a2:	000d      	movs	r5, r1
 80008a4:	20ff      	movs	r0, #255	@ 0xff
 80008a6:	2200      	movs	r2, #0
 80008a8:	05c0      	lsls	r0, r0, #23
 80008aa:	07ed      	lsls	r5, r5, #31
 80008ac:	4310      	orrs	r0, r2
 80008ae:	4328      	orrs	r0, r5
 80008b0:	bce0      	pop	{r5, r6, r7}
 80008b2:	46ba      	mov	sl, r7
 80008b4:	46b1      	mov	r9, r6
 80008b6:	46a8      	mov	r8, r5
 80008b8:	bdf0      	pop	{r4, r5, r6, r7, pc}
 80008ba:	000d      	movs	r5, r1
 80008bc:	2000      	movs	r0, #0
 80008be:	2200      	movs	r2, #0
 80008c0:	e7f2      	b.n	80008a8 <__aeabi_fdiv+0x104>
 80008c2:	4653      	mov	r3, sl
 80008c4:	2b02      	cmp	r3, #2
 80008c6:	d0ed      	beq.n	80008a4 <__aeabi_fdiv+0x100>
 80008c8:	2b03      	cmp	r3, #3
 80008ca:	d033      	beq.n	8000934 <__aeabi_fdiv+0x190>
 80008cc:	46a0      	mov	r8, r4
 80008ce:	2b01      	cmp	r3, #1
 80008d0:	d105      	bne.n	80008de <__aeabi_fdiv+0x13a>
 80008d2:	2000      	movs	r0, #0
 80008d4:	2200      	movs	r2, #0
 80008d6:	e7e7      	b.n	80008a8 <__aeabi_fdiv+0x104>
 80008d8:	0035      	movs	r5, r6
 80008da:	2803      	cmp	r0, #3
 80008dc:	d07a      	beq.n	80009d4 <__aeabi_fdiv+0x230>
 80008de:	003b      	movs	r3, r7
 80008e0:	337f      	adds	r3, #127	@ 0x7f
 80008e2:	2b00      	cmp	r3, #0
 80008e4:	dd2d      	ble.n	8000942 <__aeabi_fdiv+0x19e>
 80008e6:	4642      	mov	r2, r8
 80008e8:	0752      	lsls	r2, r2, #29
 80008ea:	d007      	beq.n	80008fc <__aeabi_fdiv+0x158>
 80008ec:	220f      	movs	r2, #15
 80008ee:	4641      	mov	r1, r8
 80008f0:	400a      	ands	r2, r1
 80008f2:	2a04      	cmp	r2, #4
 80008f4:	d002      	beq.n	80008fc <__aeabi_fdiv+0x158>
 80008f6:	2204      	movs	r2, #4
 80008f8:	4694      	mov	ip, r2
 80008fa:	44e0      	add	r8, ip
 80008fc:	4642      	mov	r2, r8
 80008fe:	0112      	lsls	r2, r2, #4
 8000900:	d505      	bpl.n	800090e <__aeabi_fdiv+0x16a>
 8000902:	4642      	mov	r2, r8
 8000904:	4b36      	ldr	r3, [pc, #216]	@ (80009e0 <__aeabi_fdiv+0x23c>)
 8000906:	401a      	ands	r2, r3
 8000908:	003b      	movs	r3, r7
 800090a:	4690      	mov	r8, r2
 800090c:	3380      	adds	r3, #128	@ 0x80
 800090e:	2bfe      	cmp	r3, #254	@ 0xfe
 8000910:	dcc8      	bgt.n	80008a4 <__aeabi_fdiv+0x100>
 8000912:	4642      	mov	r2, r8
 8000914:	0192      	lsls	r2, r2, #6
 8000916:	0a52      	lsrs	r2, r2, #9
 8000918:	b2d8      	uxtb	r0, r3
 800091a:	e7c5      	b.n	80008a8 <__aeabi_fdiv+0x104>
 800091c:	2280      	movs	r2, #128	@ 0x80
 800091e:	2500      	movs	r5, #0
 8000920:	20ff      	movs	r0, #255	@ 0xff
 8000922:	03d2      	lsls	r2, r2, #15
 8000924:	e7c0      	b.n	80008a8 <__aeabi_fdiv+0x104>
 8000926:	2280      	movs	r2, #128	@ 0x80
 8000928:	03d2      	lsls	r2, r2, #15
 800092a:	4214      	tst	r4, r2
 800092c:	d002      	beq.n	8000934 <__aeabi_fdiv+0x190>
 800092e:	4643      	mov	r3, r8
 8000930:	4213      	tst	r3, r2
 8000932:	d049      	beq.n	80009c8 <__aeabi_fdiv+0x224>
 8000934:	2280      	movs	r2, #128	@ 0x80
 8000936:	03d2      	lsls	r2, r2, #15
 8000938:	4322      	orrs	r2, r4
 800093a:	0252      	lsls	r2, r2, #9
 800093c:	20ff      	movs	r0, #255	@ 0xff
 800093e:	0a52      	lsrs	r2, r2, #9
 8000940:	e7b2      	b.n	80008a8 <__aeabi_fdiv+0x104>
 8000942:	2201      	movs	r2, #1
 8000944:	1ad3      	subs	r3, r2, r3
 8000946:	2b1b      	cmp	r3, #27
 8000948:	dcc3      	bgt.n	80008d2 <__aeabi_fdiv+0x12e>
 800094a:	4642      	mov	r2, r8
 800094c:	40da      	lsrs	r2, r3
 800094e:	4643      	mov	r3, r8
 8000950:	379e      	adds	r7, #158	@ 0x9e
 8000952:	40bb      	lsls	r3, r7
 8000954:	1e59      	subs	r1, r3, #1
 8000956:	418b      	sbcs	r3, r1
 8000958:	431a      	orrs	r2, r3
 800095a:	0753      	lsls	r3, r2, #29
 800095c:	d004      	beq.n	8000968 <__aeabi_fdiv+0x1c4>
 800095e:	230f      	movs	r3, #15
 8000960:	4013      	ands	r3, r2
 8000962:	2b04      	cmp	r3, #4
 8000964:	d000      	beq.n	8000968 <__aeabi_fdiv+0x1c4>
 8000966:	3204      	adds	r2, #4
 8000968:	0153      	lsls	r3, r2, #5
 800096a:	d529      	bpl.n	80009c0 <__aeabi_fdiv+0x21c>
 800096c:	2001      	movs	r0, #1
 800096e:	2200      	movs	r2, #0
 8000970:	e79a      	b.n	80008a8 <__aeabi_fdiv+0x104>
 8000972:	4642      	mov	r2, r8
 8000974:	0163      	lsls	r3, r4, #5
 8000976:	0155      	lsls	r5, r2, #5
 8000978:	42ab      	cmp	r3, r5
 800097a:	d215      	bcs.n	80009a8 <__aeabi_fdiv+0x204>
 800097c:	201b      	movs	r0, #27
 800097e:	2200      	movs	r2, #0
 8000980:	3f01      	subs	r7, #1
 8000982:	2601      	movs	r6, #1
 8000984:	001c      	movs	r4, r3
 8000986:	0052      	lsls	r2, r2, #1
 8000988:	005b      	lsls	r3, r3, #1
 800098a:	2c00      	cmp	r4, #0
 800098c:	db01      	blt.n	8000992 <__aeabi_fdiv+0x1ee>
 800098e:	429d      	cmp	r5, r3
 8000990:	d801      	bhi.n	8000996 <__aeabi_fdiv+0x1f2>
 8000992:	1b5b      	subs	r3, r3, r5
 8000994:	4332      	orrs	r2, r6
 8000996:	3801      	subs	r0, #1
 8000998:	2800      	cmp	r0, #0
 800099a:	d1f3      	bne.n	8000984 <__aeabi_fdiv+0x1e0>
 800099c:	1e58      	subs	r0, r3, #1
 800099e:	4183      	sbcs	r3, r0
 80009a0:	4313      	orrs	r3, r2
 80009a2:	4698      	mov	r8, r3
 80009a4:	000d      	movs	r5, r1
 80009a6:	e79a      	b.n	80008de <__aeabi_fdiv+0x13a>
 80009a8:	201a      	movs	r0, #26
 80009aa:	2201      	movs	r2, #1
 80009ac:	1b5b      	subs	r3, r3, r5
 80009ae:	e7e8      	b.n	8000982 <__aeabi_fdiv+0x1de>
 80009b0:	3b02      	subs	r3, #2
 80009b2:	425a      	negs	r2, r3
 80009b4:	4153      	adcs	r3, r2
 80009b6:	425b      	negs	r3, r3
 80009b8:	0035      	movs	r5, r6
 80009ba:	2200      	movs	r2, #0
 80009bc:	b2d8      	uxtb	r0, r3
 80009be:	e773      	b.n	80008a8 <__aeabi_fdiv+0x104>
 80009c0:	0192      	lsls	r2, r2, #6
 80009c2:	2000      	movs	r0, #0
 80009c4:	0a52      	lsrs	r2, r2, #9
 80009c6:	e76f      	b.n	80008a8 <__aeabi_fdiv+0x104>
 80009c8:	431a      	orrs	r2, r3
 80009ca:	0252      	lsls	r2, r2, #9
 80009cc:	0035      	movs	r5, r6
 80009ce:	20ff      	movs	r0, #255	@ 0xff
 80009d0:	0a52      	lsrs	r2, r2, #9
 80009d2:	e769      	b.n	80008a8 <__aeabi_fdiv+0x104>
 80009d4:	4644      	mov	r4, r8
 80009d6:	e7ad      	b.n	8000934 <__aeabi_fdiv+0x190>
 80009d8:	08004f4c 	.word	0x08004f4c
 80009dc:	08004f8c 	.word	0x08004f8c
 80009e0:	f7ffffff 	.word	0xf7ffffff

080009e4 <__eqsf2>:
 80009e4:	b570      	push	{r4, r5, r6, lr}
 80009e6:	0042      	lsls	r2, r0, #1
 80009e8:	024e      	lsls	r6, r1, #9
 80009ea:	004c      	lsls	r4, r1, #1
 80009ec:	0245      	lsls	r5, r0, #9
 80009ee:	0a6d      	lsrs	r5, r5, #9
 80009f0:	0e12      	lsrs	r2, r2, #24
 80009f2:	0fc3      	lsrs	r3, r0, #31
 80009f4:	0a76      	lsrs	r6, r6, #9
 80009f6:	0e24      	lsrs	r4, r4, #24
 80009f8:	0fc9      	lsrs	r1, r1, #31
 80009fa:	2aff      	cmp	r2, #255	@ 0xff
 80009fc:	d010      	beq.n	8000a20 <__eqsf2+0x3c>
 80009fe:	2cff      	cmp	r4, #255	@ 0xff
 8000a00:	d00c      	beq.n	8000a1c <__eqsf2+0x38>
 8000a02:	2001      	movs	r0, #1
 8000a04:	42a2      	cmp	r2, r4
 8000a06:	d10a      	bne.n	8000a1e <__eqsf2+0x3a>
 8000a08:	42b5      	cmp	r5, r6
 8000a0a:	d108      	bne.n	8000a1e <__eqsf2+0x3a>
 8000a0c:	428b      	cmp	r3, r1
 8000a0e:	d00f      	beq.n	8000a30 <__eqsf2+0x4c>
 8000a10:	2a00      	cmp	r2, #0
 8000a12:	d104      	bne.n	8000a1e <__eqsf2+0x3a>
 8000a14:	0028      	movs	r0, r5
 8000a16:	1e43      	subs	r3, r0, #1
 8000a18:	4198      	sbcs	r0, r3
 8000a1a:	e000      	b.n	8000a1e <__eqsf2+0x3a>
 8000a1c:	2001      	movs	r0, #1
 8000a1e:	bd70      	pop	{r4, r5, r6, pc}
 8000a20:	2001      	movs	r0, #1
 8000a22:	2cff      	cmp	r4, #255	@ 0xff
 8000a24:	d1fb      	bne.n	8000a1e <__eqsf2+0x3a>
 8000a26:	4335      	orrs	r5, r6
 8000a28:	d1f9      	bne.n	8000a1e <__eqsf2+0x3a>
 8000a2a:	404b      	eors	r3, r1
 8000a2c:	0018      	movs	r0, r3
 8000a2e:	e7f6      	b.n	8000a1e <__eqsf2+0x3a>
 8000a30:	2000      	movs	r0, #0
 8000a32:	e7f4      	b.n	8000a1e <__eqsf2+0x3a>

08000a34 <__gesf2>:
 8000a34:	b530      	push	{r4, r5, lr}
 8000a36:	0042      	lsls	r2, r0, #1
 8000a38:	0244      	lsls	r4, r0, #9
 8000a3a:	024d      	lsls	r5, r1, #9
 8000a3c:	0fc3      	lsrs	r3, r0, #31
 8000a3e:	0048      	lsls	r0, r1, #1
 8000a40:	0a64      	lsrs	r4, r4, #9
 8000a42:	0e12      	lsrs	r2, r2, #24
 8000a44:	0a6d      	lsrs	r5, r5, #9
 8000a46:	0e00      	lsrs	r0, r0, #24
 8000a48:	0fc9      	lsrs	r1, r1, #31
 8000a4a:	2aff      	cmp	r2, #255	@ 0xff
 8000a4c:	d019      	beq.n	8000a82 <__gesf2+0x4e>
 8000a4e:	28ff      	cmp	r0, #255	@ 0xff
 8000a50:	d00b      	beq.n	8000a6a <__gesf2+0x36>
 8000a52:	2a00      	cmp	r2, #0
 8000a54:	d11e      	bne.n	8000a94 <__gesf2+0x60>
 8000a56:	2800      	cmp	r0, #0
 8000a58:	d10b      	bne.n	8000a72 <__gesf2+0x3e>
 8000a5a:	2d00      	cmp	r5, #0
 8000a5c:	d027      	beq.n	8000aae <__gesf2+0x7a>
 8000a5e:	2c00      	cmp	r4, #0
 8000a60:	d134      	bne.n	8000acc <__gesf2+0x98>
 8000a62:	2900      	cmp	r1, #0
 8000a64:	d02f      	beq.n	8000ac6 <__gesf2+0x92>
 8000a66:	0008      	movs	r0, r1
 8000a68:	bd30      	pop	{r4, r5, pc}
 8000a6a:	2d00      	cmp	r5, #0
 8000a6c:	d128      	bne.n	8000ac0 <__gesf2+0x8c>
 8000a6e:	2a00      	cmp	r2, #0
 8000a70:	d101      	bne.n	8000a76 <__gesf2+0x42>
 8000a72:	2c00      	cmp	r4, #0
 8000a74:	d0f5      	beq.n	8000a62 <__gesf2+0x2e>
 8000a76:	428b      	cmp	r3, r1
 8000a78:	d107      	bne.n	8000a8a <__gesf2+0x56>
 8000a7a:	2b00      	cmp	r3, #0
 8000a7c:	d023      	beq.n	8000ac6 <__gesf2+0x92>
 8000a7e:	0018      	movs	r0, r3
 8000a80:	e7f2      	b.n	8000a68 <__gesf2+0x34>
 8000a82:	2c00      	cmp	r4, #0
 8000a84:	d11c      	bne.n	8000ac0 <__gesf2+0x8c>
 8000a86:	28ff      	cmp	r0, #255	@ 0xff
 8000a88:	d014      	beq.n	8000ab4 <__gesf2+0x80>
 8000a8a:	1e58      	subs	r0, r3, #1
 8000a8c:	2302      	movs	r3, #2
 8000a8e:	4018      	ands	r0, r3
 8000a90:	3801      	subs	r0, #1
 8000a92:	e7e9      	b.n	8000a68 <__gesf2+0x34>
 8000a94:	2800      	cmp	r0, #0
 8000a96:	d0f8      	beq.n	8000a8a <__gesf2+0x56>
 8000a98:	428b      	cmp	r3, r1
 8000a9a:	d1f6      	bne.n	8000a8a <__gesf2+0x56>
 8000a9c:	4282      	cmp	r2, r0
 8000a9e:	dcf4      	bgt.n	8000a8a <__gesf2+0x56>
 8000aa0:	dbeb      	blt.n	8000a7a <__gesf2+0x46>
 8000aa2:	42ac      	cmp	r4, r5
 8000aa4:	d8f1      	bhi.n	8000a8a <__gesf2+0x56>
 8000aa6:	2000      	movs	r0, #0
 8000aa8:	42ac      	cmp	r4, r5
 8000aaa:	d2dd      	bcs.n	8000a68 <__gesf2+0x34>
 8000aac:	e7e5      	b.n	8000a7a <__gesf2+0x46>
 8000aae:	2c00      	cmp	r4, #0
 8000ab0:	d0da      	beq.n	8000a68 <__gesf2+0x34>
 8000ab2:	e7ea      	b.n	8000a8a <__gesf2+0x56>
 8000ab4:	2d00      	cmp	r5, #0
 8000ab6:	d103      	bne.n	8000ac0 <__gesf2+0x8c>
 8000ab8:	428b      	cmp	r3, r1
 8000aba:	d1e6      	bne.n	8000a8a <__gesf2+0x56>
 8000abc:	2000      	movs	r0, #0
 8000abe:	e7d3      	b.n	8000a68 <__gesf2+0x34>
 8000ac0:	2002      	movs	r0, #2
 8000ac2:	4240      	negs	r0, r0
 8000ac4:	e7d0      	b.n	8000a68 <__gesf2+0x34>
 8000ac6:	2001      	movs	r0, #1
 8000ac8:	4240      	negs	r0, r0
 8000aca:	e7cd      	b.n	8000a68 <__gesf2+0x34>
 8000acc:	428b      	cmp	r3, r1
 8000ace:	d0e8      	beq.n	8000aa2 <__gesf2+0x6e>
 8000ad0:	e7db      	b.n	8000a8a <__gesf2+0x56>
 8000ad2:	46c0      	nop			@ (mov r8, r8)

08000ad4 <__lesf2>:
 8000ad4:	b530      	push	{r4, r5, lr}
 8000ad6:	0042      	lsls	r2, r0, #1
 8000ad8:	0244      	lsls	r4, r0, #9
 8000ada:	024d      	lsls	r5, r1, #9
 8000adc:	0fc3      	lsrs	r3, r0, #31
 8000ade:	0048      	lsls	r0, r1, #1
 8000ae0:	0a64      	lsrs	r4, r4, #9
 8000ae2:	0e12      	lsrs	r2, r2, #24
 8000ae4:	0a6d      	lsrs	r5, r5, #9
 8000ae6:	0e00      	lsrs	r0, r0, #24
 8000ae8:	0fc9      	lsrs	r1, r1, #31
 8000aea:	2aff      	cmp	r2, #255	@ 0xff
 8000aec:	d01a      	beq.n	8000b24 <__lesf2+0x50>
 8000aee:	28ff      	cmp	r0, #255	@ 0xff
 8000af0:	d00e      	beq.n	8000b10 <__lesf2+0x3c>
 8000af2:	2a00      	cmp	r2, #0
 8000af4:	d11e      	bne.n	8000b34 <__lesf2+0x60>
 8000af6:	2800      	cmp	r0, #0
 8000af8:	d10e      	bne.n	8000b18 <__lesf2+0x44>
 8000afa:	2d00      	cmp	r5, #0
 8000afc:	d02a      	beq.n	8000b54 <__lesf2+0x80>
 8000afe:	2c00      	cmp	r4, #0
 8000b00:	d00c      	beq.n	8000b1c <__lesf2+0x48>
 8000b02:	428b      	cmp	r3, r1
 8000b04:	d01d      	beq.n	8000b42 <__lesf2+0x6e>
 8000b06:	1e58      	subs	r0, r3, #1
 8000b08:	2302      	movs	r3, #2
 8000b0a:	4018      	ands	r0, r3
 8000b0c:	3801      	subs	r0, #1
 8000b0e:	e010      	b.n	8000b32 <__lesf2+0x5e>
 8000b10:	2d00      	cmp	r5, #0
 8000b12:	d10d      	bne.n	8000b30 <__lesf2+0x5c>
 8000b14:	2a00      	cmp	r2, #0
 8000b16:	d120      	bne.n	8000b5a <__lesf2+0x86>
 8000b18:	2c00      	cmp	r4, #0
 8000b1a:	d11e      	bne.n	8000b5a <__lesf2+0x86>
 8000b1c:	2900      	cmp	r1, #0
 8000b1e:	d023      	beq.n	8000b68 <__lesf2+0x94>
 8000b20:	0008      	movs	r0, r1
 8000b22:	e006      	b.n	8000b32 <__lesf2+0x5e>
 8000b24:	2c00      	cmp	r4, #0
 8000b26:	d103      	bne.n	8000b30 <__lesf2+0x5c>
 8000b28:	28ff      	cmp	r0, #255	@ 0xff
 8000b2a:	d1ec      	bne.n	8000b06 <__lesf2+0x32>
 8000b2c:	2d00      	cmp	r5, #0
 8000b2e:	d017      	beq.n	8000b60 <__lesf2+0x8c>
 8000b30:	2002      	movs	r0, #2
 8000b32:	bd30      	pop	{r4, r5, pc}
 8000b34:	2800      	cmp	r0, #0
 8000b36:	d0e6      	beq.n	8000b06 <__lesf2+0x32>
 8000b38:	428b      	cmp	r3, r1
 8000b3a:	d1e4      	bne.n	8000b06 <__lesf2+0x32>
 8000b3c:	4282      	cmp	r2, r0
 8000b3e:	dce2      	bgt.n	8000b06 <__lesf2+0x32>
 8000b40:	db04      	blt.n	8000b4c <__lesf2+0x78>
 8000b42:	42ac      	cmp	r4, r5
 8000b44:	d8df      	bhi.n	8000b06 <__lesf2+0x32>
 8000b46:	2000      	movs	r0, #0
 8000b48:	42ac      	cmp	r4, r5
 8000b4a:	d2f2      	bcs.n	8000b32 <__lesf2+0x5e>
 8000b4c:	2b00      	cmp	r3, #0
 8000b4e:	d00b      	beq.n	8000b68 <__lesf2+0x94>
 8000b50:	0018      	movs	r0, r3
 8000b52:	e7ee      	b.n	8000b32 <__lesf2+0x5e>
 8000b54:	2c00      	cmp	r4, #0
 8000b56:	d0ec      	beq.n	8000b32 <__lesf2+0x5e>
 8000b58:	e7d5      	b.n	8000b06 <__lesf2+0x32>
 8000b5a:	428b      	cmp	r3, r1
 8000b5c:	d1d3      	bne.n	8000b06 <__lesf2+0x32>
 8000b5e:	e7f5      	b.n	8000b4c <__lesf2+0x78>
 8000b60:	2000      	movs	r0, #0
 8000b62:	428b      	cmp	r3, r1
 8000b64:	d0e5      	beq.n	8000b32 <__lesf2+0x5e>
 8000b66:	e7ce      	b.n	8000b06 <__lesf2+0x32>
 8000b68:	2001      	movs	r0, #1
 8000b6a:	4240      	negs	r0, r0
 8000b6c:	e7e1      	b.n	8000b32 <__lesf2+0x5e>
 8000b6e:	46c0      	nop			@ (mov r8, r8)

08000b70 <__aeabi_fmul>:
 8000b70:	b5f0      	push	{r4, r5, r6, r7, lr}
 8000b72:	464f      	mov	r7, r9
 8000b74:	4646      	mov	r6, r8
 8000b76:	46d6      	mov	lr, sl
 8000b78:	0243      	lsls	r3, r0, #9
 8000b7a:	0a5b      	lsrs	r3, r3, #9
 8000b7c:	0045      	lsls	r5, r0, #1
 8000b7e:	b5c0      	push	{r6, r7, lr}
 8000b80:	4699      	mov	r9, r3
 8000b82:	1c0f      	adds	r7, r1, #0
 8000b84:	0e2d      	lsrs	r5, r5, #24
 8000b86:	0fc6      	lsrs	r6, r0, #31
 8000b88:	2d00      	cmp	r5, #0
 8000b8a:	d100      	bne.n	8000b8e <__aeabi_fmul+0x1e>
 8000b8c:	e088      	b.n	8000ca0 <__aeabi_fmul+0x130>
 8000b8e:	2dff      	cmp	r5, #255	@ 0xff
 8000b90:	d100      	bne.n	8000b94 <__aeabi_fmul+0x24>
 8000b92:	e08d      	b.n	8000cb0 <__aeabi_fmul+0x140>
 8000b94:	2280      	movs	r2, #128	@ 0x80
 8000b96:	00db      	lsls	r3, r3, #3
 8000b98:	04d2      	lsls	r2, r2, #19
 8000b9a:	431a      	orrs	r2, r3
 8000b9c:	2300      	movs	r3, #0
 8000b9e:	4691      	mov	r9, r2
 8000ba0:	4698      	mov	r8, r3
 8000ba2:	469a      	mov	sl, r3
 8000ba4:	3d7f      	subs	r5, #127	@ 0x7f
 8000ba6:	027c      	lsls	r4, r7, #9
 8000ba8:	007b      	lsls	r3, r7, #1
 8000baa:	0a64      	lsrs	r4, r4, #9
 8000bac:	0e1b      	lsrs	r3, r3, #24
 8000bae:	0fff      	lsrs	r7, r7, #31
 8000bb0:	2b00      	cmp	r3, #0
 8000bb2:	d068      	beq.n	8000c86 <__aeabi_fmul+0x116>
 8000bb4:	2bff      	cmp	r3, #255	@ 0xff
 8000bb6:	d021      	beq.n	8000bfc <__aeabi_fmul+0x8c>
 8000bb8:	2280      	movs	r2, #128	@ 0x80
 8000bba:	00e4      	lsls	r4, r4, #3
 8000bbc:	04d2      	lsls	r2, r2, #19
 8000bbe:	4314      	orrs	r4, r2
 8000bc0:	4642      	mov	r2, r8
 8000bc2:	3b7f      	subs	r3, #127	@ 0x7f
 8000bc4:	195b      	adds	r3, r3, r5
 8000bc6:	2100      	movs	r1, #0
 8000bc8:	1c5d      	adds	r5, r3, #1
 8000bca:	2a0a      	cmp	r2, #10
 8000bcc:	dc2e      	bgt.n	8000c2c <__aeabi_fmul+0xbc>
 8000bce:	407e      	eors	r6, r7
 8000bd0:	4642      	mov	r2, r8
 8000bd2:	2a02      	cmp	r2, #2
 8000bd4:	dc23      	bgt.n	8000c1e <__aeabi_fmul+0xae>
 8000bd6:	3a01      	subs	r2, #1
 8000bd8:	2a01      	cmp	r2, #1
 8000bda:	d900      	bls.n	8000bde <__aeabi_fmul+0x6e>
 8000bdc:	e0bd      	b.n	8000d5a <__aeabi_fmul+0x1ea>
 8000bde:	2902      	cmp	r1, #2
 8000be0:	d06e      	beq.n	8000cc0 <__aeabi_fmul+0x150>
 8000be2:	2901      	cmp	r1, #1
 8000be4:	d12c      	bne.n	8000c40 <__aeabi_fmul+0xd0>
 8000be6:	2000      	movs	r0, #0
 8000be8:	2200      	movs	r2, #0
 8000bea:	05c0      	lsls	r0, r0, #23
 8000bec:	07f6      	lsls	r6, r6, #31
 8000bee:	4310      	orrs	r0, r2
 8000bf0:	4330      	orrs	r0, r6
 8000bf2:	bce0      	pop	{r5, r6, r7}
 8000bf4:	46ba      	mov	sl, r7
 8000bf6:	46b1      	mov	r9, r6
 8000bf8:	46a8      	mov	r8, r5
 8000bfa:	bdf0      	pop	{r4, r5, r6, r7, pc}
 8000bfc:	002b      	movs	r3, r5
 8000bfe:	33ff      	adds	r3, #255	@ 0xff
 8000c00:	2c00      	cmp	r4, #0
 8000c02:	d065      	beq.n	8000cd0 <__aeabi_fmul+0x160>
 8000c04:	2203      	movs	r2, #3
 8000c06:	4641      	mov	r1, r8
 8000c08:	4311      	orrs	r1, r2
 8000c0a:	0032      	movs	r2, r6
 8000c0c:	3501      	adds	r5, #1
 8000c0e:	4688      	mov	r8, r1
 8000c10:	407a      	eors	r2, r7
 8000c12:	35ff      	adds	r5, #255	@ 0xff
 8000c14:	290a      	cmp	r1, #10
 8000c16:	dd00      	ble.n	8000c1a <__aeabi_fmul+0xaa>
 8000c18:	e0d8      	b.n	8000dcc <__aeabi_fmul+0x25c>
 8000c1a:	0016      	movs	r6, r2
 8000c1c:	2103      	movs	r1, #3
 8000c1e:	4640      	mov	r0, r8
 8000c20:	2201      	movs	r2, #1
 8000c22:	4082      	lsls	r2, r0
 8000c24:	20a6      	movs	r0, #166	@ 0xa6
 8000c26:	00c0      	lsls	r0, r0, #3
 8000c28:	4202      	tst	r2, r0
 8000c2a:	d020      	beq.n	8000c6e <__aeabi_fmul+0xfe>
 8000c2c:	4653      	mov	r3, sl
 8000c2e:	2b02      	cmp	r3, #2
 8000c30:	d046      	beq.n	8000cc0 <__aeabi_fmul+0x150>
 8000c32:	2b03      	cmp	r3, #3
 8000c34:	d100      	bne.n	8000c38 <__aeabi_fmul+0xc8>
 8000c36:	e0bb      	b.n	8000db0 <__aeabi_fmul+0x240>
 8000c38:	4651      	mov	r1, sl
 8000c3a:	464c      	mov	r4, r9
 8000c3c:	2901      	cmp	r1, #1
 8000c3e:	d0d2      	beq.n	8000be6 <__aeabi_fmul+0x76>
 8000c40:	002b      	movs	r3, r5
 8000c42:	337f      	adds	r3, #127	@ 0x7f
 8000c44:	2b00      	cmp	r3, #0
 8000c46:	dd70      	ble.n	8000d2a <__aeabi_fmul+0x1ba>
 8000c48:	0762      	lsls	r2, r4, #29
 8000c4a:	d004      	beq.n	8000c56 <__aeabi_fmul+0xe6>
 8000c4c:	220f      	movs	r2, #15
 8000c4e:	4022      	ands	r2, r4
 8000c50:	2a04      	cmp	r2, #4
 8000c52:	d000      	beq.n	8000c56 <__aeabi_fmul+0xe6>
 8000c54:	3404      	adds	r4, #4
 8000c56:	0122      	lsls	r2, r4, #4
 8000c58:	d503      	bpl.n	8000c62 <__aeabi_fmul+0xf2>
 8000c5a:	4b63      	ldr	r3, [pc, #396]	@ (8000de8 <__aeabi_fmul+0x278>)
 8000c5c:	401c      	ands	r4, r3
 8000c5e:	002b      	movs	r3, r5
 8000c60:	3380      	adds	r3, #128	@ 0x80
 8000c62:	2bfe      	cmp	r3, #254	@ 0xfe
 8000c64:	dc2c      	bgt.n	8000cc0 <__aeabi_fmul+0x150>
 8000c66:	01a2      	lsls	r2, r4, #6
 8000c68:	0a52      	lsrs	r2, r2, #9
 8000c6a:	b2d8      	uxtb	r0, r3
 8000c6c:	e7bd      	b.n	8000bea <__aeabi_fmul+0x7a>
 8000c6e:	2090      	movs	r0, #144	@ 0x90
 8000c70:	0080      	lsls	r0, r0, #2
 8000c72:	4202      	tst	r2, r0
 8000c74:	d127      	bne.n	8000cc6 <__aeabi_fmul+0x156>
 8000c76:	38b9      	subs	r0, #185	@ 0xb9
 8000c78:	38ff      	subs	r0, #255	@ 0xff
 8000c7a:	4210      	tst	r0, r2
 8000c7c:	d06d      	beq.n	8000d5a <__aeabi_fmul+0x1ea>
 8000c7e:	003e      	movs	r6, r7
 8000c80:	46a1      	mov	r9, r4
 8000c82:	468a      	mov	sl, r1
 8000c84:	e7d2      	b.n	8000c2c <__aeabi_fmul+0xbc>
 8000c86:	2c00      	cmp	r4, #0
 8000c88:	d141      	bne.n	8000d0e <__aeabi_fmul+0x19e>
 8000c8a:	2301      	movs	r3, #1
 8000c8c:	4642      	mov	r2, r8
 8000c8e:	431a      	orrs	r2, r3
 8000c90:	4690      	mov	r8, r2
 8000c92:	002b      	movs	r3, r5
 8000c94:	4642      	mov	r2, r8
 8000c96:	2101      	movs	r1, #1
 8000c98:	1c5d      	adds	r5, r3, #1
 8000c9a:	2a0a      	cmp	r2, #10
 8000c9c:	dd97      	ble.n	8000bce <__aeabi_fmul+0x5e>
 8000c9e:	e7c5      	b.n	8000c2c <__aeabi_fmul+0xbc>
 8000ca0:	2b00      	cmp	r3, #0
 8000ca2:	d126      	bne.n	8000cf2 <__aeabi_fmul+0x182>
 8000ca4:	2304      	movs	r3, #4
 8000ca6:	4698      	mov	r8, r3
 8000ca8:	3b03      	subs	r3, #3
 8000caa:	2500      	movs	r5, #0
 8000cac:	469a      	mov	sl, r3
 8000cae:	e77a      	b.n	8000ba6 <__aeabi_fmul+0x36>
 8000cb0:	2b00      	cmp	r3, #0
 8000cb2:	d118      	bne.n	8000ce6 <__aeabi_fmul+0x176>
 8000cb4:	2308      	movs	r3, #8
 8000cb6:	4698      	mov	r8, r3
 8000cb8:	3b06      	subs	r3, #6
 8000cba:	25ff      	movs	r5, #255	@ 0xff
 8000cbc:	469a      	mov	sl, r3
 8000cbe:	e772      	b.n	8000ba6 <__aeabi_fmul+0x36>
 8000cc0:	20ff      	movs	r0, #255	@ 0xff
 8000cc2:	2200      	movs	r2, #0
 8000cc4:	e791      	b.n	8000bea <__aeabi_fmul+0x7a>
 8000cc6:	2280      	movs	r2, #128	@ 0x80
 8000cc8:	2600      	movs	r6, #0
 8000cca:	20ff      	movs	r0, #255	@ 0xff
 8000ccc:	03d2      	lsls	r2, r2, #15
 8000cce:	e78c      	b.n	8000bea <__aeabi_fmul+0x7a>
 8000cd0:	4641      	mov	r1, r8
 8000cd2:	2202      	movs	r2, #2
 8000cd4:	3501      	adds	r5, #1
 8000cd6:	4311      	orrs	r1, r2
 8000cd8:	4688      	mov	r8, r1
 8000cda:	35ff      	adds	r5, #255	@ 0xff
 8000cdc:	290a      	cmp	r1, #10
 8000cde:	dca5      	bgt.n	8000c2c <__aeabi_fmul+0xbc>
 8000ce0:	2102      	movs	r1, #2
 8000ce2:	407e      	eors	r6, r7
 8000ce4:	e774      	b.n	8000bd0 <__aeabi_fmul+0x60>
 8000ce6:	230c      	movs	r3, #12
 8000ce8:	4698      	mov	r8, r3
 8000cea:	3b09      	subs	r3, #9
 8000cec:	25ff      	movs	r5, #255	@ 0xff
 8000cee:	469a      	mov	sl, r3
 8000cf0:	e759      	b.n	8000ba6 <__aeabi_fmul+0x36>
 8000cf2:	0018      	movs	r0, r3
 8000cf4:	f000 facc 	bl	8001290 <__clzsi2>
 8000cf8:	464a      	mov	r2, r9
 8000cfa:	1f43      	subs	r3, r0, #5
 8000cfc:	2576      	movs	r5, #118	@ 0x76
 8000cfe:	409a      	lsls	r2, r3
 8000d00:	2300      	movs	r3, #0
 8000d02:	426d      	negs	r5, r5
 8000d04:	4691      	mov	r9, r2
 8000d06:	4698      	mov	r8, r3
 8000d08:	469a      	mov	sl, r3
 8000d0a:	1a2d      	subs	r5, r5, r0
 8000d0c:	e74b      	b.n	8000ba6 <__aeabi_fmul+0x36>
 8000d0e:	0020      	movs	r0, r4
 8000d10:	f000 fabe 	bl	8001290 <__clzsi2>
 8000d14:	4642      	mov	r2, r8
 8000d16:	1f43      	subs	r3, r0, #5
 8000d18:	409c      	lsls	r4, r3
 8000d1a:	1a2b      	subs	r3, r5, r0
 8000d1c:	3b76      	subs	r3, #118	@ 0x76
 8000d1e:	2100      	movs	r1, #0
 8000d20:	1c5d      	adds	r5, r3, #1
 8000d22:	2a0a      	cmp	r2, #10
 8000d24:	dc00      	bgt.n	8000d28 <__aeabi_fmul+0x1b8>
 8000d26:	e752      	b.n	8000bce <__aeabi_fmul+0x5e>
 8000d28:	e780      	b.n	8000c2c <__aeabi_fmul+0xbc>
 8000d2a:	2201      	movs	r2, #1
 8000d2c:	1ad3      	subs	r3, r2, r3
 8000d2e:	2b1b      	cmp	r3, #27
 8000d30:	dd00      	ble.n	8000d34 <__aeabi_fmul+0x1c4>
 8000d32:	e758      	b.n	8000be6 <__aeabi_fmul+0x76>
 8000d34:	359e      	adds	r5, #158	@ 0x9e
 8000d36:	0022      	movs	r2, r4
 8000d38:	40ac      	lsls	r4, r5
 8000d3a:	40da      	lsrs	r2, r3
 8000d3c:	1e63      	subs	r3, r4, #1
 8000d3e:	419c      	sbcs	r4, r3
 8000d40:	4322      	orrs	r2, r4
 8000d42:	0753      	lsls	r3, r2, #29
 8000d44:	d004      	beq.n	8000d50 <__aeabi_fmul+0x1e0>
 8000d46:	230f      	movs	r3, #15
 8000d48:	4013      	ands	r3, r2
 8000d4a:	2b04      	cmp	r3, #4
 8000d4c:	d000      	beq.n	8000d50 <__aeabi_fmul+0x1e0>
 8000d4e:	3204      	adds	r2, #4
 8000d50:	0153      	lsls	r3, r2, #5
 8000d52:	d537      	bpl.n	8000dc4 <__aeabi_fmul+0x254>
 8000d54:	2001      	movs	r0, #1
 8000d56:	2200      	movs	r2, #0
 8000d58:	e747      	b.n	8000bea <__aeabi_fmul+0x7a>
 8000d5a:	0c21      	lsrs	r1, r4, #16
 8000d5c:	464a      	mov	r2, r9
 8000d5e:	0424      	lsls	r4, r4, #16
 8000d60:	0c24      	lsrs	r4, r4, #16
 8000d62:	0027      	movs	r7, r4
 8000d64:	0c10      	lsrs	r0, r2, #16
 8000d66:	0412      	lsls	r2, r2, #16
 8000d68:	0c12      	lsrs	r2, r2, #16
 8000d6a:	4344      	muls	r4, r0
 8000d6c:	4357      	muls	r7, r2
 8000d6e:	4348      	muls	r0, r1
 8000d70:	4351      	muls	r1, r2
 8000d72:	0c3a      	lsrs	r2, r7, #16
 8000d74:	1909      	adds	r1, r1, r4
 8000d76:	1852      	adds	r2, r2, r1
 8000d78:	4294      	cmp	r4, r2
 8000d7a:	d903      	bls.n	8000d84 <__aeabi_fmul+0x214>
 8000d7c:	2180      	movs	r1, #128	@ 0x80
 8000d7e:	0249      	lsls	r1, r1, #9
 8000d80:	468c      	mov	ip, r1
 8000d82:	4460      	add	r0, ip
 8000d84:	043f      	lsls	r7, r7, #16
 8000d86:	0411      	lsls	r1, r2, #16
 8000d88:	0c3f      	lsrs	r7, r7, #16
 8000d8a:	19c9      	adds	r1, r1, r7
 8000d8c:	018c      	lsls	r4, r1, #6
 8000d8e:	1e67      	subs	r7, r4, #1
 8000d90:	41bc      	sbcs	r4, r7
 8000d92:	0c12      	lsrs	r2, r2, #16
 8000d94:	0e89      	lsrs	r1, r1, #26
 8000d96:	1812      	adds	r2, r2, r0
 8000d98:	430c      	orrs	r4, r1
 8000d9a:	0192      	lsls	r2, r2, #6
 8000d9c:	4314      	orrs	r4, r2
 8000d9e:	0112      	lsls	r2, r2, #4
 8000da0:	d50e      	bpl.n	8000dc0 <__aeabi_fmul+0x250>
 8000da2:	2301      	movs	r3, #1
 8000da4:	0862      	lsrs	r2, r4, #1
 8000da6:	401c      	ands	r4, r3
 8000da8:	4314      	orrs	r4, r2
 8000daa:	e749      	b.n	8000c40 <__aeabi_fmul+0xd0>
 8000dac:	003e      	movs	r6, r7
 8000dae:	46a1      	mov	r9, r4
 8000db0:	2280      	movs	r2, #128	@ 0x80
 8000db2:	464b      	mov	r3, r9
 8000db4:	03d2      	lsls	r2, r2, #15
 8000db6:	431a      	orrs	r2, r3
 8000db8:	0252      	lsls	r2, r2, #9
 8000dba:	20ff      	movs	r0, #255	@ 0xff
 8000dbc:	0a52      	lsrs	r2, r2, #9
 8000dbe:	e714      	b.n	8000bea <__aeabi_fmul+0x7a>
 8000dc0:	001d      	movs	r5, r3
 8000dc2:	e73d      	b.n	8000c40 <__aeabi_fmul+0xd0>
 8000dc4:	0192      	lsls	r2, r2, #6
 8000dc6:	2000      	movs	r0, #0
 8000dc8:	0a52      	lsrs	r2, r2, #9
 8000dca:	e70e      	b.n	8000bea <__aeabi_fmul+0x7a>
 8000dcc:	290f      	cmp	r1, #15
 8000dce:	d1ed      	bne.n	8000dac <__aeabi_fmul+0x23c>
 8000dd0:	2280      	movs	r2, #128	@ 0x80
 8000dd2:	464b      	mov	r3, r9
 8000dd4:	03d2      	lsls	r2, r2, #15
 8000dd6:	4213      	tst	r3, r2
 8000dd8:	d0ea      	beq.n	8000db0 <__aeabi_fmul+0x240>
 8000dda:	4214      	tst	r4, r2
 8000ddc:	d1e8      	bne.n	8000db0 <__aeabi_fmul+0x240>
 8000dde:	003e      	movs	r6, r7
 8000de0:	20ff      	movs	r0, #255	@ 0xff
 8000de2:	4322      	orrs	r2, r4
 8000de4:	e701      	b.n	8000bea <__aeabi_fmul+0x7a>
 8000de6:	46c0      	nop			@ (mov r8, r8)
 8000de8:	f7ffffff 	.word	0xf7ffffff

08000dec <__aeabi_fsub>:
 8000dec:	b5f8      	push	{r3, r4, r5, r6, r7, lr}
 8000dee:	4647      	mov	r7, r8
 8000df0:	46ce      	mov	lr, r9
 8000df2:	024e      	lsls	r6, r1, #9
 8000df4:	0243      	lsls	r3, r0, #9
 8000df6:	0045      	lsls	r5, r0, #1
 8000df8:	0a72      	lsrs	r2, r6, #9
 8000dfa:	0fc4      	lsrs	r4, r0, #31
 8000dfc:	0048      	lsls	r0, r1, #1
 8000dfe:	b580      	push	{r7, lr}
 8000e00:	4694      	mov	ip, r2
 8000e02:	0a5f      	lsrs	r7, r3, #9
 8000e04:	0e2d      	lsrs	r5, r5, #24
 8000e06:	099b      	lsrs	r3, r3, #6
 8000e08:	0e00      	lsrs	r0, r0, #24
 8000e0a:	0fc9      	lsrs	r1, r1, #31
 8000e0c:	09b6      	lsrs	r6, r6, #6
 8000e0e:	28ff      	cmp	r0, #255	@ 0xff
 8000e10:	d024      	beq.n	8000e5c <__aeabi_fsub+0x70>
 8000e12:	2201      	movs	r2, #1
 8000e14:	4051      	eors	r1, r2
 8000e16:	1a2a      	subs	r2, r5, r0
 8000e18:	428c      	cmp	r4, r1
 8000e1a:	d00f      	beq.n	8000e3c <__aeabi_fsub+0x50>
 8000e1c:	2a00      	cmp	r2, #0
 8000e1e:	dc00      	bgt.n	8000e22 <__aeabi_fsub+0x36>
 8000e20:	e16a      	b.n	80010f8 <__aeabi_fsub+0x30c>
 8000e22:	2800      	cmp	r0, #0
 8000e24:	d135      	bne.n	8000e92 <__aeabi_fsub+0xa6>
 8000e26:	2e00      	cmp	r6, #0
 8000e28:	d100      	bne.n	8000e2c <__aeabi_fsub+0x40>
 8000e2a:	e0a2      	b.n	8000f72 <__aeabi_fsub+0x186>
 8000e2c:	1e51      	subs	r1, r2, #1
 8000e2e:	2a01      	cmp	r2, #1
 8000e30:	d100      	bne.n	8000e34 <__aeabi_fsub+0x48>
 8000e32:	e124      	b.n	800107e <__aeabi_fsub+0x292>
 8000e34:	2aff      	cmp	r2, #255	@ 0xff
 8000e36:	d021      	beq.n	8000e7c <__aeabi_fsub+0x90>
 8000e38:	000a      	movs	r2, r1
 8000e3a:	e02f      	b.n	8000e9c <__aeabi_fsub+0xb0>
 8000e3c:	2a00      	cmp	r2, #0
 8000e3e:	dc00      	bgt.n	8000e42 <__aeabi_fsub+0x56>
 8000e40:	e167      	b.n	8001112 <__aeabi_fsub+0x326>
 8000e42:	2800      	cmp	r0, #0
 8000e44:	d05e      	beq.n	8000f04 <__aeabi_fsub+0x118>
 8000e46:	2dff      	cmp	r5, #255	@ 0xff
 8000e48:	d018      	beq.n	8000e7c <__aeabi_fsub+0x90>
 8000e4a:	2180      	movs	r1, #128	@ 0x80
 8000e4c:	04c9      	lsls	r1, r1, #19
 8000e4e:	430e      	orrs	r6, r1
 8000e50:	2a1b      	cmp	r2, #27
 8000e52:	dc00      	bgt.n	8000e56 <__aeabi_fsub+0x6a>
 8000e54:	e076      	b.n	8000f44 <__aeabi_fsub+0x158>
 8000e56:	002a      	movs	r2, r5
 8000e58:	3301      	adds	r3, #1
 8000e5a:	e032      	b.n	8000ec2 <__aeabi_fsub+0xd6>
 8000e5c:	002a      	movs	r2, r5
 8000e5e:	3aff      	subs	r2, #255	@ 0xff
 8000e60:	4691      	mov	r9, r2
 8000e62:	2e00      	cmp	r6, #0
 8000e64:	d042      	beq.n	8000eec <__aeabi_fsub+0x100>
 8000e66:	428c      	cmp	r4, r1
 8000e68:	d055      	beq.n	8000f16 <__aeabi_fsub+0x12a>
 8000e6a:	464a      	mov	r2, r9
 8000e6c:	2a00      	cmp	r2, #0
 8000e6e:	d100      	bne.n	8000e72 <__aeabi_fsub+0x86>
 8000e70:	e09c      	b.n	8000fac <__aeabi_fsub+0x1c0>
 8000e72:	2d00      	cmp	r5, #0
 8000e74:	d100      	bne.n	8000e78 <__aeabi_fsub+0x8c>
 8000e76:	e077      	b.n	8000f68 <__aeabi_fsub+0x17c>
 8000e78:	000c      	movs	r4, r1
 8000e7a:	0033      	movs	r3, r6
 8000e7c:	08db      	lsrs	r3, r3, #3
 8000e7e:	2b00      	cmp	r3, #0
 8000e80:	d100      	bne.n	8000e84 <__aeabi_fsub+0x98>
 8000e82:	e06e      	b.n	8000f62 <__aeabi_fsub+0x176>
 8000e84:	2280      	movs	r2, #128	@ 0x80
 8000e86:	03d2      	lsls	r2, r2, #15
 8000e88:	4313      	orrs	r3, r2
 8000e8a:	025b      	lsls	r3, r3, #9
 8000e8c:	20ff      	movs	r0, #255	@ 0xff
 8000e8e:	0a5b      	lsrs	r3, r3, #9
 8000e90:	e024      	b.n	8000edc <__aeabi_fsub+0xf0>
 8000e92:	2dff      	cmp	r5, #255	@ 0xff
 8000e94:	d0f2      	beq.n	8000e7c <__aeabi_fsub+0x90>
 8000e96:	2180      	movs	r1, #128	@ 0x80
 8000e98:	04c9      	lsls	r1, r1, #19
 8000e9a:	430e      	orrs	r6, r1
 8000e9c:	2101      	movs	r1, #1
 8000e9e:	2a1b      	cmp	r2, #27
 8000ea0:	dc08      	bgt.n	8000eb4 <__aeabi_fsub+0xc8>
 8000ea2:	0031      	movs	r1, r6
 8000ea4:	2020      	movs	r0, #32
 8000ea6:	40d1      	lsrs	r1, r2
 8000ea8:	1a82      	subs	r2, r0, r2
 8000eaa:	4096      	lsls	r6, r2
 8000eac:	0032      	movs	r2, r6
 8000eae:	1e50      	subs	r0, r2, #1
 8000eb0:	4182      	sbcs	r2, r0
 8000eb2:	4311      	orrs	r1, r2
 8000eb4:	1a5b      	subs	r3, r3, r1
 8000eb6:	015a      	lsls	r2, r3, #5
 8000eb8:	d460      	bmi.n	8000f7c <__aeabi_fsub+0x190>
 8000eba:	2107      	movs	r1, #7
 8000ebc:	002a      	movs	r2, r5
 8000ebe:	4019      	ands	r1, r3
 8000ec0:	d057      	beq.n	8000f72 <__aeabi_fsub+0x186>
 8000ec2:	210f      	movs	r1, #15
 8000ec4:	4019      	ands	r1, r3
 8000ec6:	2904      	cmp	r1, #4
 8000ec8:	d000      	beq.n	8000ecc <__aeabi_fsub+0xe0>
 8000eca:	3304      	adds	r3, #4
 8000ecc:	0159      	lsls	r1, r3, #5
 8000ece:	d550      	bpl.n	8000f72 <__aeabi_fsub+0x186>
 8000ed0:	1c50      	adds	r0, r2, #1
 8000ed2:	2afe      	cmp	r2, #254	@ 0xfe
 8000ed4:	d045      	beq.n	8000f62 <__aeabi_fsub+0x176>
 8000ed6:	019b      	lsls	r3, r3, #6
 8000ed8:	b2c0      	uxtb	r0, r0
 8000eda:	0a5b      	lsrs	r3, r3, #9
 8000edc:	05c0      	lsls	r0, r0, #23
 8000ede:	4318      	orrs	r0, r3
 8000ee0:	07e4      	lsls	r4, r4, #31
 8000ee2:	4320      	orrs	r0, r4
 8000ee4:	bcc0      	pop	{r6, r7}
 8000ee6:	46b9      	mov	r9, r7
 8000ee8:	46b0      	mov	r8, r6
 8000eea:	bdf8      	pop	{r3, r4, r5, r6, r7, pc}
 8000eec:	2201      	movs	r2, #1
 8000eee:	4051      	eors	r1, r2
 8000ef0:	428c      	cmp	r4, r1
 8000ef2:	d1ba      	bne.n	8000e6a <__aeabi_fsub+0x7e>
 8000ef4:	464a      	mov	r2, r9
 8000ef6:	2a00      	cmp	r2, #0
 8000ef8:	d010      	beq.n	8000f1c <__aeabi_fsub+0x130>
 8000efa:	2d00      	cmp	r5, #0
 8000efc:	d100      	bne.n	8000f00 <__aeabi_fsub+0x114>
 8000efe:	e098      	b.n	8001032 <__aeabi_fsub+0x246>
 8000f00:	2300      	movs	r3, #0
 8000f02:	e7bb      	b.n	8000e7c <__aeabi_fsub+0x90>
 8000f04:	2e00      	cmp	r6, #0
 8000f06:	d034      	beq.n	8000f72 <__aeabi_fsub+0x186>
 8000f08:	1e51      	subs	r1, r2, #1
 8000f0a:	2a01      	cmp	r2, #1
 8000f0c:	d06e      	beq.n	8000fec <__aeabi_fsub+0x200>
 8000f0e:	2aff      	cmp	r2, #255	@ 0xff
 8000f10:	d0b4      	beq.n	8000e7c <__aeabi_fsub+0x90>
 8000f12:	000a      	movs	r2, r1
 8000f14:	e79c      	b.n	8000e50 <__aeabi_fsub+0x64>
 8000f16:	2a00      	cmp	r2, #0
 8000f18:	d000      	beq.n	8000f1c <__aeabi_fsub+0x130>
 8000f1a:	e088      	b.n	800102e <__aeabi_fsub+0x242>
 8000f1c:	20fe      	movs	r0, #254	@ 0xfe
 8000f1e:	1c6a      	adds	r2, r5, #1
 8000f20:	4210      	tst	r0, r2
 8000f22:	d000      	beq.n	8000f26 <__aeabi_fsub+0x13a>
 8000f24:	e092      	b.n	800104c <__aeabi_fsub+0x260>
 8000f26:	2d00      	cmp	r5, #0
 8000f28:	d000      	beq.n	8000f2c <__aeabi_fsub+0x140>
 8000f2a:	e0a4      	b.n	8001076 <__aeabi_fsub+0x28a>
 8000f2c:	2b00      	cmp	r3, #0
 8000f2e:	d100      	bne.n	8000f32 <__aeabi_fsub+0x146>
 8000f30:	e0cb      	b.n	80010ca <__aeabi_fsub+0x2de>
 8000f32:	2e00      	cmp	r6, #0
 8000f34:	d000      	beq.n	8000f38 <__aeabi_fsub+0x14c>
 8000f36:	e0ca      	b.n	80010ce <__aeabi_fsub+0x2e2>
 8000f38:	2200      	movs	r2, #0
 8000f3a:	08db      	lsrs	r3, r3, #3
 8000f3c:	025b      	lsls	r3, r3, #9
 8000f3e:	0a5b      	lsrs	r3, r3, #9
 8000f40:	b2d0      	uxtb	r0, r2
 8000f42:	e7cb      	b.n	8000edc <__aeabi_fsub+0xf0>
 8000f44:	0031      	movs	r1, r6
 8000f46:	2020      	movs	r0, #32
 8000f48:	40d1      	lsrs	r1, r2
 8000f4a:	1a82      	subs	r2, r0, r2
 8000f4c:	4096      	lsls	r6, r2
 8000f4e:	0032      	movs	r2, r6
 8000f50:	1e50      	subs	r0, r2, #1
 8000f52:	4182      	sbcs	r2, r0
 8000f54:	430a      	orrs	r2, r1
 8000f56:	189b      	adds	r3, r3, r2
 8000f58:	015a      	lsls	r2, r3, #5
 8000f5a:	d5ae      	bpl.n	8000eba <__aeabi_fsub+0xce>
 8000f5c:	1c6a      	adds	r2, r5, #1
 8000f5e:	2dfe      	cmp	r5, #254	@ 0xfe
 8000f60:	d14a      	bne.n	8000ff8 <__aeabi_fsub+0x20c>
 8000f62:	20ff      	movs	r0, #255	@ 0xff
 8000f64:	2300      	movs	r3, #0
 8000f66:	e7b9      	b.n	8000edc <__aeabi_fsub+0xf0>
 8000f68:	22ff      	movs	r2, #255	@ 0xff
 8000f6a:	2b00      	cmp	r3, #0
 8000f6c:	d14b      	bne.n	8001006 <__aeabi_fsub+0x21a>
 8000f6e:	000c      	movs	r4, r1
 8000f70:	0033      	movs	r3, r6
 8000f72:	08db      	lsrs	r3, r3, #3
 8000f74:	2aff      	cmp	r2, #255	@ 0xff
 8000f76:	d100      	bne.n	8000f7a <__aeabi_fsub+0x18e>
 8000f78:	e781      	b.n	8000e7e <__aeabi_fsub+0x92>
 8000f7a:	e7df      	b.n	8000f3c <__aeabi_fsub+0x150>
 8000f7c:	019f      	lsls	r7, r3, #6
 8000f7e:	09bf      	lsrs	r7, r7, #6
 8000f80:	0038      	movs	r0, r7
 8000f82:	f000 f985 	bl	8001290 <__clzsi2>
 8000f86:	3805      	subs	r0, #5
 8000f88:	4087      	lsls	r7, r0
 8000f8a:	4285      	cmp	r5, r0
 8000f8c:	dc21      	bgt.n	8000fd2 <__aeabi_fsub+0x1e6>
 8000f8e:	003b      	movs	r3, r7
 8000f90:	2120      	movs	r1, #32
 8000f92:	1b42      	subs	r2, r0, r5
 8000f94:	3201      	adds	r2, #1
 8000f96:	40d3      	lsrs	r3, r2
 8000f98:	1a8a      	subs	r2, r1, r2
 8000f9a:	4097      	lsls	r7, r2
 8000f9c:	1e7a      	subs	r2, r7, #1
 8000f9e:	4197      	sbcs	r7, r2
 8000fa0:	2200      	movs	r2, #0
 8000fa2:	433b      	orrs	r3, r7
 8000fa4:	0759      	lsls	r1, r3, #29
 8000fa6:	d000      	beq.n	8000faa <__aeabi_fsub+0x1be>
 8000fa8:	e78b      	b.n	8000ec2 <__aeabi_fsub+0xd6>
 8000faa:	e78f      	b.n	8000ecc <__aeabi_fsub+0xe0>
 8000fac:	20fe      	movs	r0, #254	@ 0xfe
 8000fae:	1c6a      	adds	r2, r5, #1
 8000fb0:	4210      	tst	r0, r2
 8000fb2:	d112      	bne.n	8000fda <__aeabi_fsub+0x1ee>
 8000fb4:	2d00      	cmp	r5, #0
 8000fb6:	d152      	bne.n	800105e <__aeabi_fsub+0x272>
 8000fb8:	2b00      	cmp	r3, #0
 8000fba:	d07c      	beq.n	80010b6 <__aeabi_fsub+0x2ca>
 8000fbc:	2e00      	cmp	r6, #0
 8000fbe:	d0bb      	beq.n	8000f38 <__aeabi_fsub+0x14c>
 8000fc0:	1b9a      	subs	r2, r3, r6
 8000fc2:	0150      	lsls	r0, r2, #5
 8000fc4:	d400      	bmi.n	8000fc8 <__aeabi_fsub+0x1dc>
 8000fc6:	e08b      	b.n	80010e0 <__aeabi_fsub+0x2f4>
 8000fc8:	2401      	movs	r4, #1
 8000fca:	2200      	movs	r2, #0
 8000fcc:	1af3      	subs	r3, r6, r3
 8000fce:	400c      	ands	r4, r1
 8000fd0:	e7e8      	b.n	8000fa4 <__aeabi_fsub+0x1b8>
 8000fd2:	4b56      	ldr	r3, [pc, #344]	@ (800112c <__aeabi_fsub+0x340>)
 8000fd4:	1a2a      	subs	r2, r5, r0
 8000fd6:	403b      	ands	r3, r7
 8000fd8:	e7e4      	b.n	8000fa4 <__aeabi_fsub+0x1b8>
 8000fda:	1b9f      	subs	r7, r3, r6
 8000fdc:	017a      	lsls	r2, r7, #5
 8000fde:	d446      	bmi.n	800106e <__aeabi_fsub+0x282>
 8000fe0:	2f00      	cmp	r7, #0
 8000fe2:	d1cd      	bne.n	8000f80 <__aeabi_fsub+0x194>
 8000fe4:	2400      	movs	r4, #0
 8000fe6:	2000      	movs	r0, #0
 8000fe8:	2300      	movs	r3, #0
 8000fea:	e777      	b.n	8000edc <__aeabi_fsub+0xf0>
 8000fec:	199b      	adds	r3, r3, r6
 8000fee:	2501      	movs	r5, #1
 8000ff0:	3201      	adds	r2, #1
 8000ff2:	0159      	lsls	r1, r3, #5
 8000ff4:	d400      	bmi.n	8000ff8 <__aeabi_fsub+0x20c>
 8000ff6:	e760      	b.n	8000eba <__aeabi_fsub+0xce>
 8000ff8:	2101      	movs	r1, #1
 8000ffa:	484d      	ldr	r0, [pc, #308]	@ (8001130 <__aeabi_fsub+0x344>)
 8000ffc:	4019      	ands	r1, r3
 8000ffe:	085b      	lsrs	r3, r3, #1
 8001000:	4003      	ands	r3, r0
 8001002:	430b      	orrs	r3, r1
 8001004:	e7ce      	b.n	8000fa4 <__aeabi_fsub+0x1b8>
 8001006:	1e57      	subs	r7, r2, #1
 8001008:	2a01      	cmp	r2, #1
 800100a:	d05a      	beq.n	80010c2 <__aeabi_fsub+0x2d6>
 800100c:	000c      	movs	r4, r1
 800100e:	2aff      	cmp	r2, #255	@ 0xff
 8001010:	d033      	beq.n	800107a <__aeabi_fsub+0x28e>
 8001012:	2201      	movs	r2, #1
 8001014:	2f1b      	cmp	r7, #27
 8001016:	dc07      	bgt.n	8001028 <__aeabi_fsub+0x23c>
 8001018:	2120      	movs	r1, #32
 800101a:	1bc9      	subs	r1, r1, r7
 800101c:	001a      	movs	r2, r3
 800101e:	408b      	lsls	r3, r1
 8001020:	40fa      	lsrs	r2, r7
 8001022:	1e59      	subs	r1, r3, #1
 8001024:	418b      	sbcs	r3, r1
 8001026:	431a      	orrs	r2, r3
 8001028:	0005      	movs	r5, r0
 800102a:	1ab3      	subs	r3, r6, r2
 800102c:	e743      	b.n	8000eb6 <__aeabi_fsub+0xca>
 800102e:	2d00      	cmp	r5, #0
 8001030:	d123      	bne.n	800107a <__aeabi_fsub+0x28e>
 8001032:	22ff      	movs	r2, #255	@ 0xff
 8001034:	2b00      	cmp	r3, #0
 8001036:	d09b      	beq.n	8000f70 <__aeabi_fsub+0x184>
 8001038:	1e51      	subs	r1, r2, #1
 800103a:	2a01      	cmp	r2, #1
 800103c:	d0d6      	beq.n	8000fec <__aeabi_fsub+0x200>
 800103e:	2aff      	cmp	r2, #255	@ 0xff
 8001040:	d01b      	beq.n	800107a <__aeabi_fsub+0x28e>
 8001042:	291b      	cmp	r1, #27
 8001044:	dd2c      	ble.n	80010a0 <__aeabi_fsub+0x2b4>
 8001046:	0002      	movs	r2, r0
 8001048:	1c73      	adds	r3, r6, #1
 800104a:	e73a      	b.n	8000ec2 <__aeabi_fsub+0xd6>
 800104c:	2aff      	cmp	r2, #255	@ 0xff
 800104e:	d088      	beq.n	8000f62 <__aeabi_fsub+0x176>
 8001050:	199b      	adds	r3, r3, r6
 8001052:	085b      	lsrs	r3, r3, #1
 8001054:	0759      	lsls	r1, r3, #29
 8001056:	d000      	beq.n	800105a <__aeabi_fsub+0x26e>
 8001058:	e733      	b.n	8000ec2 <__aeabi_fsub+0xd6>
 800105a:	08db      	lsrs	r3, r3, #3
 800105c:	e76e      	b.n	8000f3c <__aeabi_fsub+0x150>
 800105e:	2b00      	cmp	r3, #0
 8001060:	d110      	bne.n	8001084 <__aeabi_fsub+0x298>
 8001062:	2e00      	cmp	r6, #0
 8001064:	d043      	beq.n	80010ee <__aeabi_fsub+0x302>
 8001066:	2401      	movs	r4, #1
 8001068:	0033      	movs	r3, r6
 800106a:	400c      	ands	r4, r1
 800106c:	e706      	b.n	8000e7c <__aeabi_fsub+0x90>
 800106e:	2401      	movs	r4, #1
 8001070:	1af7      	subs	r7, r6, r3
 8001072:	400c      	ands	r4, r1
 8001074:	e784      	b.n	8000f80 <__aeabi_fsub+0x194>
 8001076:	2b00      	cmp	r3, #0
 8001078:	d104      	bne.n	8001084 <__aeabi_fsub+0x298>
 800107a:	0033      	movs	r3, r6
 800107c:	e6fe      	b.n	8000e7c <__aeabi_fsub+0x90>
 800107e:	2501      	movs	r5, #1
 8001080:	1b9b      	subs	r3, r3, r6
 8001082:	e718      	b.n	8000eb6 <__aeabi_fsub+0xca>
 8001084:	2e00      	cmp	r6, #0
 8001086:	d100      	bne.n	800108a <__aeabi_fsub+0x29e>
 8001088:	e6f8      	b.n	8000e7c <__aeabi_fsub+0x90>
 800108a:	2280      	movs	r2, #128	@ 0x80
 800108c:	03d2      	lsls	r2, r2, #15
 800108e:	4297      	cmp	r7, r2
 8001090:	d304      	bcc.n	800109c <__aeabi_fsub+0x2b0>
 8001092:	4594      	cmp	ip, r2
 8001094:	d202      	bcs.n	800109c <__aeabi_fsub+0x2b0>
 8001096:	2401      	movs	r4, #1
 8001098:	0033      	movs	r3, r6
 800109a:	400c      	ands	r4, r1
 800109c:	08db      	lsrs	r3, r3, #3
 800109e:	e6f1      	b.n	8000e84 <__aeabi_fsub+0x98>
 80010a0:	001a      	movs	r2, r3
 80010a2:	2520      	movs	r5, #32
 80010a4:	40ca      	lsrs	r2, r1
 80010a6:	1a69      	subs	r1, r5, r1
 80010a8:	408b      	lsls	r3, r1
 80010aa:	1e59      	subs	r1, r3, #1
 80010ac:	418b      	sbcs	r3, r1
 80010ae:	4313      	orrs	r3, r2
 80010b0:	0005      	movs	r5, r0
 80010b2:	199b      	adds	r3, r3, r6
 80010b4:	e750      	b.n	8000f58 <__aeabi_fsub+0x16c>
 80010b6:	2e00      	cmp	r6, #0
 80010b8:	d094      	beq.n	8000fe4 <__aeabi_fsub+0x1f8>
 80010ba:	2401      	movs	r4, #1
 80010bc:	0033      	movs	r3, r6
 80010be:	400c      	ands	r4, r1
 80010c0:	e73a      	b.n	8000f38 <__aeabi_fsub+0x14c>
 80010c2:	000c      	movs	r4, r1
 80010c4:	2501      	movs	r5, #1
 80010c6:	1af3      	subs	r3, r6, r3
 80010c8:	e6f5      	b.n	8000eb6 <__aeabi_fsub+0xca>
 80010ca:	0033      	movs	r3, r6
 80010cc:	e734      	b.n	8000f38 <__aeabi_fsub+0x14c>
 80010ce:	199b      	adds	r3, r3, r6
 80010d0:	2200      	movs	r2, #0
 80010d2:	0159      	lsls	r1, r3, #5
 80010d4:	d5c1      	bpl.n	800105a <__aeabi_fsub+0x26e>
 80010d6:	4a15      	ldr	r2, [pc, #84]	@ (800112c <__aeabi_fsub+0x340>)
 80010d8:	4013      	ands	r3, r2
 80010da:	08db      	lsrs	r3, r3, #3
 80010dc:	2201      	movs	r2, #1
 80010de:	e72d      	b.n	8000f3c <__aeabi_fsub+0x150>
 80010e0:	2a00      	cmp	r2, #0
 80010e2:	d100      	bne.n	80010e6 <__aeabi_fsub+0x2fa>
 80010e4:	e77e      	b.n	8000fe4 <__aeabi_fsub+0x1f8>
 80010e6:	0013      	movs	r3, r2
 80010e8:	2200      	movs	r2, #0
 80010ea:	08db      	lsrs	r3, r3, #3
 80010ec:	e726      	b.n	8000f3c <__aeabi_fsub+0x150>
 80010ee:	2380      	movs	r3, #128	@ 0x80
 80010f0:	2400      	movs	r4, #0
 80010f2:	20ff      	movs	r0, #255	@ 0xff
 80010f4:	03db      	lsls	r3, r3, #15
 80010f6:	e6f1      	b.n	8000edc <__aeabi_fsub+0xf0>
 80010f8:	2a00      	cmp	r2, #0
 80010fa:	d100      	bne.n	80010fe <__aeabi_fsub+0x312>
 80010fc:	e756      	b.n	8000fac <__aeabi_fsub+0x1c0>
 80010fe:	1b47      	subs	r7, r0, r5
 8001100:	003a      	movs	r2, r7
 8001102:	2d00      	cmp	r5, #0
 8001104:	d100      	bne.n	8001108 <__aeabi_fsub+0x31c>
 8001106:	e730      	b.n	8000f6a <__aeabi_fsub+0x17e>
 8001108:	2280      	movs	r2, #128	@ 0x80
 800110a:	04d2      	lsls	r2, r2, #19
 800110c:	000c      	movs	r4, r1
 800110e:	4313      	orrs	r3, r2
 8001110:	e77f      	b.n	8001012 <__aeabi_fsub+0x226>
 8001112:	2a00      	cmp	r2, #0
 8001114:	d100      	bne.n	8001118 <__aeabi_fsub+0x32c>
 8001116:	e701      	b.n	8000f1c <__aeabi_fsub+0x130>
 8001118:	1b41      	subs	r1, r0, r5
 800111a:	2d00      	cmp	r5, #0
 800111c:	d101      	bne.n	8001122 <__aeabi_fsub+0x336>
 800111e:	000a      	movs	r2, r1
 8001120:	e788      	b.n	8001034 <__aeabi_fsub+0x248>
 8001122:	2280      	movs	r2, #128	@ 0x80
 8001124:	04d2      	lsls	r2, r2, #19
 8001126:	4313      	orrs	r3, r2
 8001128:	e78b      	b.n	8001042 <__aeabi_fsub+0x256>
 800112a:	46c0      	nop			@ (mov r8, r8)
 800112c:	fbffffff 	.word	0xfbffffff
 8001130:	7dffffff 	.word	0x7dffffff

08001134 <__aeabi_f2iz>:
 8001134:	0241      	lsls	r1, r0, #9
 8001136:	0042      	lsls	r2, r0, #1
 8001138:	0fc3      	lsrs	r3, r0, #31
 800113a:	0a49      	lsrs	r1, r1, #9
 800113c:	2000      	movs	r0, #0
 800113e:	0e12      	lsrs	r2, r2, #24
 8001140:	2a7e      	cmp	r2, #126	@ 0x7e
 8001142:	dd03      	ble.n	800114c <__aeabi_f2iz+0x18>
 8001144:	2a9d      	cmp	r2, #157	@ 0x9d
 8001146:	dd02      	ble.n	800114e <__aeabi_f2iz+0x1a>
 8001148:	4a09      	ldr	r2, [pc, #36]	@ (8001170 <__aeabi_f2iz+0x3c>)
 800114a:	1898      	adds	r0, r3, r2
 800114c:	4770      	bx	lr
 800114e:	2080      	movs	r0, #128	@ 0x80
 8001150:	0400      	lsls	r0, r0, #16
 8001152:	4301      	orrs	r1, r0
 8001154:	2a95      	cmp	r2, #149	@ 0x95
 8001156:	dc07      	bgt.n	8001168 <__aeabi_f2iz+0x34>
 8001158:	2096      	movs	r0, #150	@ 0x96
 800115a:	1a82      	subs	r2, r0, r2
 800115c:	40d1      	lsrs	r1, r2
 800115e:	4248      	negs	r0, r1
 8001160:	2b00      	cmp	r3, #0
 8001162:	d1f3      	bne.n	800114c <__aeabi_f2iz+0x18>
 8001164:	0008      	movs	r0, r1
 8001166:	e7f1      	b.n	800114c <__aeabi_f2iz+0x18>
 8001168:	3a96      	subs	r2, #150	@ 0x96
 800116a:	4091      	lsls	r1, r2
 800116c:	e7f7      	b.n	800115e <__aeabi_f2iz+0x2a>
 800116e:	46c0      	nop			@ (mov r8, r8)
 8001170:	7fffffff 	.word	0x7fffffff

08001174 <__aeabi_i2f>:
 8001174:	b570      	push	{r4, r5, r6, lr}
 8001176:	2800      	cmp	r0, #0
 8001178:	d013      	beq.n	80011a2 <__aeabi_i2f+0x2e>
 800117a:	17c3      	asrs	r3, r0, #31
 800117c:	18c5      	adds	r5, r0, r3
 800117e:	405d      	eors	r5, r3
 8001180:	0fc4      	lsrs	r4, r0, #31
 8001182:	0028      	movs	r0, r5
 8001184:	f000 f884 	bl	8001290 <__clzsi2>
 8001188:	239e      	movs	r3, #158	@ 0x9e
 800118a:	0001      	movs	r1, r0
 800118c:	1a1b      	subs	r3, r3, r0
 800118e:	2b96      	cmp	r3, #150	@ 0x96
 8001190:	dc0f      	bgt.n	80011b2 <__aeabi_i2f+0x3e>
 8001192:	2808      	cmp	r0, #8
 8001194:	d034      	beq.n	8001200 <__aeabi_i2f+0x8c>
 8001196:	3908      	subs	r1, #8
 8001198:	408d      	lsls	r5, r1
 800119a:	026d      	lsls	r5, r5, #9
 800119c:	0a6d      	lsrs	r5, r5, #9
 800119e:	b2d8      	uxtb	r0, r3
 80011a0:	e002      	b.n	80011a8 <__aeabi_i2f+0x34>
 80011a2:	2400      	movs	r4, #0
 80011a4:	2000      	movs	r0, #0
 80011a6:	2500      	movs	r5, #0
 80011a8:	05c0      	lsls	r0, r0, #23
 80011aa:	4328      	orrs	r0, r5
 80011ac:	07e4      	lsls	r4, r4, #31
 80011ae:	4320      	orrs	r0, r4
 80011b0:	bd70      	pop	{r4, r5, r6, pc}
 80011b2:	2b99      	cmp	r3, #153	@ 0x99
 80011b4:	dc16      	bgt.n	80011e4 <__aeabi_i2f+0x70>
 80011b6:	1f42      	subs	r2, r0, #5
 80011b8:	2805      	cmp	r0, #5
 80011ba:	d000      	beq.n	80011be <__aeabi_i2f+0x4a>
 80011bc:	4095      	lsls	r5, r2
 80011be:	002a      	movs	r2, r5
 80011c0:	4811      	ldr	r0, [pc, #68]	@ (8001208 <__aeabi_i2f+0x94>)
 80011c2:	4002      	ands	r2, r0
 80011c4:	076e      	lsls	r6, r5, #29
 80011c6:	d009      	beq.n	80011dc <__aeabi_i2f+0x68>
 80011c8:	260f      	movs	r6, #15
 80011ca:	4035      	ands	r5, r6
 80011cc:	2d04      	cmp	r5, #4
 80011ce:	d005      	beq.n	80011dc <__aeabi_i2f+0x68>
 80011d0:	3204      	adds	r2, #4
 80011d2:	0155      	lsls	r5, r2, #5
 80011d4:	d502      	bpl.n	80011dc <__aeabi_i2f+0x68>
 80011d6:	239f      	movs	r3, #159	@ 0x9f
 80011d8:	4002      	ands	r2, r0
 80011da:	1a5b      	subs	r3, r3, r1
 80011dc:	0192      	lsls	r2, r2, #6
 80011de:	0a55      	lsrs	r5, r2, #9
 80011e0:	b2d8      	uxtb	r0, r3
 80011e2:	e7e1      	b.n	80011a8 <__aeabi_i2f+0x34>
 80011e4:	2205      	movs	r2, #5
 80011e6:	1a12      	subs	r2, r2, r0
 80011e8:	0028      	movs	r0, r5
 80011ea:	40d0      	lsrs	r0, r2
 80011ec:	0002      	movs	r2, r0
 80011ee:	0008      	movs	r0, r1
 80011f0:	301b      	adds	r0, #27
 80011f2:	4085      	lsls	r5, r0
 80011f4:	0028      	movs	r0, r5
 80011f6:	1e45      	subs	r5, r0, #1
 80011f8:	41a8      	sbcs	r0, r5
 80011fa:	4302      	orrs	r2, r0
 80011fc:	0015      	movs	r5, r2
 80011fe:	e7de      	b.n	80011be <__aeabi_i2f+0x4a>
 8001200:	026d      	lsls	r5, r5, #9
 8001202:	2096      	movs	r0, #150	@ 0x96
 8001204:	0a6d      	lsrs	r5, r5, #9
 8001206:	e7cf      	b.n	80011a8 <__aeabi_i2f+0x34>
 8001208:	fbffffff 	.word	0xfbffffff

0800120c <__aeabi_ui2f>:
 800120c:	b570      	push	{r4, r5, r6, lr}
 800120e:	1e04      	subs	r4, r0, #0
 8001210:	d00e      	beq.n	8001230 <__aeabi_ui2f+0x24>
 8001212:	f000 f83d 	bl	8001290 <__clzsi2>
 8001216:	239e      	movs	r3, #158	@ 0x9e
 8001218:	0001      	movs	r1, r0
 800121a:	1a1b      	subs	r3, r3, r0
 800121c:	2b96      	cmp	r3, #150	@ 0x96
 800121e:	dc0c      	bgt.n	800123a <__aeabi_ui2f+0x2e>
 8001220:	2808      	cmp	r0, #8
 8001222:	d02f      	beq.n	8001284 <__aeabi_ui2f+0x78>
 8001224:	3908      	subs	r1, #8
 8001226:	408c      	lsls	r4, r1
 8001228:	0264      	lsls	r4, r4, #9
 800122a:	0a64      	lsrs	r4, r4, #9
 800122c:	b2d8      	uxtb	r0, r3
 800122e:	e001      	b.n	8001234 <__aeabi_ui2f+0x28>
 8001230:	2000      	movs	r0, #0
 8001232:	2400      	movs	r4, #0
 8001234:	05c0      	lsls	r0, r0, #23
 8001236:	4320      	orrs	r0, r4
 8001238:	bd70      	pop	{r4, r5, r6, pc}
 800123a:	2b99      	cmp	r3, #153	@ 0x99
 800123c:	dc16      	bgt.n	800126c <__aeabi_ui2f+0x60>
 800123e:	1f42      	subs	r2, r0, #5
 8001240:	2805      	cmp	r0, #5
 8001242:	d000      	beq.n	8001246 <__aeabi_ui2f+0x3a>
 8001244:	4094      	lsls	r4, r2
 8001246:	0022      	movs	r2, r4
 8001248:	4810      	ldr	r0, [pc, #64]	@ (800128c <__aeabi_ui2f+0x80>)
 800124a:	4002      	ands	r2, r0
 800124c:	0765      	lsls	r5, r4, #29
 800124e:	d009      	beq.n	8001264 <__aeabi_ui2f+0x58>
 8001250:	250f      	movs	r5, #15
 8001252:	402c      	ands	r4, r5
 8001254:	2c04      	cmp	r4, #4
 8001256:	d005      	beq.n	8001264 <__aeabi_ui2f+0x58>
 8001258:	3204      	adds	r2, #4
 800125a:	0154      	lsls	r4, r2, #5
 800125c:	d502      	bpl.n	8001264 <__aeabi_ui2f+0x58>
 800125e:	239f      	movs	r3, #159	@ 0x9f
 8001260:	4002      	ands	r2, r0
 8001262:	1a5b      	subs	r3, r3, r1
 8001264:	0192      	lsls	r2, r2, #6
 8001266:	0a54      	lsrs	r4, r2, #9
 8001268:	b2d8      	uxtb	r0, r3
 800126a:	e7e3      	b.n	8001234 <__aeabi_ui2f+0x28>
 800126c:	0002      	movs	r2, r0
 800126e:	0020      	movs	r0, r4
 8001270:	321b      	adds	r2, #27
 8001272:	4090      	lsls	r0, r2
 8001274:	0002      	movs	r2, r0
 8001276:	1e50      	subs	r0, r2, #1
 8001278:	4182      	sbcs	r2, r0
 800127a:	2005      	movs	r0, #5
 800127c:	1a40      	subs	r0, r0, r1
 800127e:	40c4      	lsrs	r4, r0
 8001280:	4314      	orrs	r4, r2
 8001282:	e7e0      	b.n	8001246 <__aeabi_ui2f+0x3a>
 8001284:	0264      	lsls	r4, r4, #9
 8001286:	2096      	movs	r0, #150	@ 0x96
 8001288:	0a64      	lsrs	r4, r4, #9
 800128a:	e7d3      	b.n	8001234 <__aeabi_ui2f+0x28>
 800128c:	fbffffff 	.word	0xfbffffff

08001290 <__clzsi2>:
 8001290:	211c      	movs	r1, #28
 8001292:	2301      	movs	r3, #1
 8001294:	041b      	lsls	r3, r3, #16
 8001296:	4298      	cmp	r0, r3
 8001298:	d301      	bcc.n	800129e <__clzsi2+0xe>
 800129a:	0c00      	lsrs	r0, r0, #16
 800129c:	3910      	subs	r1, #16
 800129e:	0a1b      	lsrs	r3, r3, #8
 80012a0:	4298      	cmp	r0, r3
 80012a2:	d301      	bcc.n	80012a8 <__clzsi2+0x18>
 80012a4:	0a00      	lsrs	r0, r0, #8
 80012a6:	3908      	subs	r1, #8
 80012a8:	091b      	lsrs	r3, r3, #4
 80012aa:	4298      	cmp	r0, r3
 80012ac:	d301      	bcc.n	80012b2 <__clzsi2+0x22>
 80012ae:	0900      	lsrs	r0, r0, #4
 80012b0:	3904      	subs	r1, #4
 80012b2:	a202      	add	r2, pc, #8	@ (adr r2, 80012bc <__clzsi2+0x2c>)
 80012b4:	5c10      	ldrb	r0, [r2, r0]
 80012b6:	1840      	adds	r0, r0, r1
 80012b8:	4770      	bx	lr
 80012ba:	46c0      	nop			@ (mov r8, r8)
 80012bc:	02020304 	.word	0x02020304
 80012c0:	01010101 	.word	0x01010101
	...

080012cc <Reset_Handler>:
 80012cc:	480d      	ldr	r0, [pc, #52]	@ (8001304 <LoopForever+0x2>)
 80012ce:	4685      	mov	sp, r0
 80012d0:	480d      	ldr	r0, [pc, #52]	@ (8001308 <LoopForever+0x6>)
 80012d2:	490e      	ldr	r1, [pc, #56]	@ (800130c <LoopForever+0xa>)
 80012d4:	4a0e      	ldr	r2, [pc, #56]	@ (8001310 <LoopForever+0xe>)
 80012d6:	2300      	movs	r3, #0
 80012d8:	e002      	b.n	80012e0 <LoopCopyDataInit>

080012da <CopyDataInit>:
 80012da:	58d4      	ldr	r4, [r2, r3]
 80012dc:	50c4      	str	r4, [r0, r3]
 80012de:	3304      	adds	r3, #4

080012e0 <LoopCopyDataInit>:
 80012e0:	18c4      	adds	r4, r0, r3
 80012e2:	428c      	cmp	r4, r1
 80012e4:	d3f9      	bcc.n	80012da <CopyDataInit>
 80012e6:	4a0b      	ldr	r2, [pc, #44]	@ (8001314 <LoopForever+0x12>)
 80012e8:	4c0b      	ldr	r4, [pc, #44]	@ (8001318 <LoopForever+0x16>)
 80012ea:	2300      	movs	r3, #0
 80012ec:	e001      	b.n	80012f2 <LoopFillZerobss>

080012ee <FillZerobss>:
 80012ee:	6013      	str	r3, [r2, #0]
 80012f0:	3204      	adds	r2, #4

080012f2 <LoopFillZerobss>:
 80012f2:	42a2      	cmp	r2, r4
 80012f4:	d3fb      	bcc.n	80012ee <FillZerobss>
 80012f6:	f001 fe0b 	bl	8002f10 <SystemInit>
 80012fa:	f003 fded 	bl	8004ed8 <__libc_init_array>
 80012fe:	f000 f935 	bl	800156c <main>

08001302 <LoopForever>:
 8001302:	e7fe      	b.n	8001302 <LoopForever>
 8001304:	20001000 	.word	0x20001000
 8001308:	20000000 	.word	0x20000000
 800130c:	20000564 	.word	0x20000564
 8001310:	0800528c 	.word	0x0800528c
 8001314:	20000564 	.word	0x20000564
 8001318:	20000714 	.word	0x20000714

0800131c <ADC1_IRQHandler>:
 800131c:	e7fe      	b.n	800131c <ADC1_IRQHandler>
	...

08001320 <LL_AHB1_GRP1_EnableClock>:
 8001320:	4b05      	ldr	r3, [pc, #20]	@ (8001338 <LL_AHB1_GRP1_EnableClock+0x18>)
 8001322:	b082      	sub	sp, #8
 8001324:	695a      	ldr	r2, [r3, #20]
 8001326:	4302      	orrs	r2, r0
 8001328:	615a      	str	r2, [r3, #20]
 800132a:	695b      	ldr	r3, [r3, #20]
 800132c:	4018      	ands	r0, r3
 800132e:	9001      	str	r0, [sp, #4]
 8001330:	9b01      	ldr	r3, [sp, #4]
 8001332:	b002      	add	sp, #8
 8001334:	4770      	bx	lr
 8001336:	46c0      	nop			@ (mov r8, r8)
 8001338:	40021000 	.word	0x40021000

0800133c <LL_APB1_GRP2_EnableClock>:
 800133c:	4b05      	ldr	r3, [pc, #20]	@ (8001354 <LL_APB1_GRP2_EnableClock+0x18>)
 800133e:	b082      	sub	sp, #8
 8001340:	699a      	ldr	r2, [r3, #24]
 8001342:	4302      	orrs	r2, r0
 8001344:	619a      	str	r2, [r3, #24]
 8001346:	699b      	ldr	r3, [r3, #24]
 8001348:	4018      	ands	r0, r3
 800134a:	9001      	str	r0, [sp, #4]
 800134c:	9b01      	ldr	r3, [sp, #4]
 800134e:	b002      	add	sp, #8
 8001350:	4770      	bx	lr
 8001352:	46c0      	nop			@ (mov r8, r8)
 8001354:	40021000 	.word	0x40021000

08001358 <LL_TIM_OC_DisableFast>:
 8001358:	2940      	cmp	r1, #64	@ 0x40
 800135a:	d812      	bhi.n	8001382 <LL_TIM_OC_DisableFast+0x2a>
 800135c:	2302      	movs	r3, #2
 800135e:	2910      	cmp	r1, #16
 8001360:	d003      	beq.n	800136a <LL_TIM_OC_DisableFast+0x12>
 8001362:	2300      	movs	r3, #0
 8001364:	2901      	cmp	r1, #1
 8001366:	d000      	beq.n	800136a <LL_TIM_OC_DisableFast+0x12>
 8001368:	3306      	adds	r3, #6
 800136a:	4a09      	ldr	r2, [pc, #36]	@ (8001390 <LL_TIM_OC_DisableFast+0x38>)
 800136c:	3018      	adds	r0, #24
 800136e:	5cd2      	ldrb	r2, [r2, r3]
 8001370:	1812      	adds	r2, r2, r0
 8001372:	4808      	ldr	r0, [pc, #32]	@ (8001394 <LL_TIM_OC_DisableFast+0x3c>)
 8001374:	6811      	ldr	r1, [r2, #0]
 8001376:	5cc0      	ldrb	r0, [r0, r3]
 8001378:	2304      	movs	r3, #4
 800137a:	4083      	lsls	r3, r0
 800137c:	4399      	bics	r1, r3
 800137e:	6011      	str	r1, [r2, #0]
 8001380:	4770      	bx	lr
 8001382:	2280      	movs	r2, #128	@ 0x80
 8001384:	2304      	movs	r3, #4
 8001386:	0052      	lsls	r2, r2, #1
 8001388:	4291      	cmp	r1, r2
 800138a:	d0ee      	beq.n	800136a <LL_TIM_OC_DisableFast+0x12>
 800138c:	3302      	adds	r3, #2
 800138e:	e7ec      	b.n	800136a <LL_TIM_OC_DisableFast+0x12>
 8001390:	08004fcf 	.word	0x08004fcf
 8001394:	08004fc8 	.word	0x08004fc8

08001398 <LL_TIM_OC_EnablePreload>:
 8001398:	2940      	cmp	r1, #64	@ 0x40
 800139a:	d812      	bhi.n	80013c2 <LL_TIM_OC_EnablePreload+0x2a>
 800139c:	2302      	movs	r3, #2
 800139e:	2910      	cmp	r1, #16
 80013a0:	d003      	beq.n	80013aa <LL_TIM_OC_EnablePreload+0x12>
 80013a2:	2300      	movs	r3, #0
 80013a4:	2901      	cmp	r1, #1
 80013a6:	d000      	beq.n	80013aa <LL_TIM_OC_EnablePreload+0x12>
 80013a8:	3306      	adds	r3, #6
 80013aa:	4a09      	ldr	r2, [pc, #36]	@ (80013d0 <LL_TIM_OC_EnablePreload+0x38>)
 80013ac:	3018      	adds	r0, #24
 80013ae:	5cd2      	ldrb	r2, [r2, r3]
 80013b0:	1812      	adds	r2, r2, r0
 80013b2:	4808      	ldr	r0, [pc, #32]	@ (80013d4 <LL_TIM_OC_EnablePreload+0x3c>)
 80013b4:	6811      	ldr	r1, [r2, #0]
 80013b6:	5cc0      	ldrb	r0, [r0, r3]
 80013b8:	2308      	movs	r3, #8
 80013ba:	4083      	lsls	r3, r0
 80013bc:	430b      	orrs	r3, r1
 80013be:	6013      	str	r3, [r2, #0]
 80013c0:	4770      	bx	lr
 80013c2:	2280      	movs	r2, #128	@ 0x80
 80013c4:	2304      	movs	r3, #4
 80013c6:	0052      	lsls	r2, r2, #1
 80013c8:	4291      	cmp	r1, r2
 80013ca:	d0ee      	beq.n	80013aa <LL_TIM_OC_EnablePreload+0x12>
 80013cc:	3302      	adds	r3, #2
 80013ce:	e7ec      	b.n	80013aa <LL_TIM_OC_EnablePreload+0x12>
 80013d0:	08004fcf 	.word	0x08004fcf
 80013d4:	08004fc8 	.word	0x08004fc8

080013d8 <ProcessReceivedMessage>:
 80013d8:	b570      	push	{r4, r5, r6, lr}
 80013da:	4d2a      	ldr	r5, [pc, #168]	@ (8001484 <ProcessReceivedMessage+0xac>)
 80013dc:	78c3      	ldrb	r3, [r0, #3]
 80013de:	4c2a      	ldr	r4, [pc, #168]	@ (8001488 <ProcessReceivedMessage+0xb0>)
 80013e0:	702b      	strb	r3, [r5, #0]
 80013e2:	7903      	ldrb	r3, [r0, #4]
 80013e4:	706b      	strb	r3, [r5, #1]
 80013e6:	7943      	ldrb	r3, [r0, #5]
 80013e8:	70ab      	strb	r3, [r5, #2]
 80013ea:	7983      	ldrb	r3, [r0, #6]
 80013ec:	70eb      	strb	r3, [r5, #3]
 80013ee:	79c3      	ldrb	r3, [r0, #7]
 80013f0:	7023      	strb	r3, [r4, #0]
 80013f2:	7a03      	ldrb	r3, [r0, #8]
 80013f4:	7063      	strb	r3, [r4, #1]
 80013f6:	7a43      	ldrb	r3, [r0, #9]
 80013f8:	70a3      	strb	r3, [r4, #2]
 80013fa:	7a83      	ldrb	r3, [r0, #10]
 80013fc:	70e3      	strb	r3, [r4, #3]
 80013fe:	7803      	ldrb	r3, [r0, #0]
 8001400:	2b48      	cmp	r3, #72	@ 0x48
 8001402:	d10f      	bne.n	8001424 <ProcessReceivedMessage+0x4c>
 8001404:	7843      	ldrb	r3, [r0, #1]
 8001406:	2b5a      	cmp	r3, #90	@ 0x5a
 8001408:	d10c      	bne.n	8001424 <ProcessReceivedMessage+0x4c>
 800140a:	7880      	ldrb	r0, [r0, #2]
 800140c:	3801      	subs	r0, #1
 800140e:	2807      	cmp	r0, #7
 8001410:	d808      	bhi.n	8001424 <ProcessReceivedMessage+0x4c>
 8001412:	f7fe fe83 	bl	800011c <__gnu_thumb1_case_uqi>
 8001416:	0704      	.short	0x0704
 8001418:	07092316 	.word	0x07092316
 800141c:	3330      	.short	0x3330
 800141e:	2201      	movs	r2, #1
 8001420:	4b1a      	ldr	r3, [pc, #104]	@ (800148c <ProcessReceivedMessage+0xb4>)
 8001422:	701a      	strb	r2, [r3, #0]
 8001424:	2000      	movs	r0, #0
 8001426:	bd70      	pop	{r4, r5, r6, pc}
 8001428:	f000 fd18 	bl	8001e5c <MC_StartMotor1>
 800142c:	4918      	ldr	r1, [pc, #96]	@ (8001490 <ProcessReceivedMessage+0xb8>)
 800142e:	0028      	movs	r0, r5
 8001430:	f001 fd39 	bl	8002ea6 <ProcessReceivedFloat>
 8001434:	0020      	movs	r0, r4
 8001436:	4917      	ldr	r1, [pc, #92]	@ (8001494 <ProcessReceivedMessage+0xbc>)
 8001438:	f001 fd35 	bl	8002ea6 <ProcessReceivedFloat>
 800143c:	2205      	movs	r2, #5
 800143e:	4b13      	ldr	r3, [pc, #76]	@ (800148c <ProcessReceivedMessage+0xb4>)
 8001440:	e7ef      	b.n	8001422 <ProcessReceivedMessage+0x4a>
 8001442:	f000 fd0b 	bl	8001e5c <MC_StartMotor1>
 8001446:	4914      	ldr	r1, [pc, #80]	@ (8001498 <ProcessReceivedMessage+0xc0>)
 8001448:	0028      	movs	r0, r5
 800144a:	f001 fd1e 	bl	8002e8a <ProcessReceivedUint16>
 800144e:	0020      	movs	r0, r4
 8001450:	4912      	ldr	r1, [pc, #72]	@ (800149c <ProcessReceivedMessage+0xc4>)
 8001452:	f001 fd21 	bl	8002e98 <ProcessReceivedInt16>
 8001456:	2203      	movs	r2, #3
 8001458:	4b0c      	ldr	r3, [pc, #48]	@ (800148c <ProcessReceivedMessage+0xb4>)
 800145a:	e7e2      	b.n	8001422 <ProcessReceivedMessage+0x4a>
 800145c:	f000 fcfe 	bl	8001e5c <MC_StartMotor1>
 8001460:	490d      	ldr	r1, [pc, #52]	@ (8001498 <ProcessReceivedMessage+0xc0>)
 8001462:	0028      	movs	r0, r5
 8001464:	f001 fd11 	bl	8002e8a <ProcessReceivedUint16>
 8001468:	0020      	movs	r0, r4
 800146a:	490c      	ldr	r1, [pc, #48]	@ (800149c <ProcessReceivedMessage+0xc4>)
 800146c:	f001 fd14 	bl	8002e98 <ProcessReceivedInt16>
 8001470:	2204      	movs	r2, #4
 8001472:	4b06      	ldr	r3, [pc, #24]	@ (800148c <ProcessReceivedMessage+0xb4>)
 8001474:	e7d5      	b.n	8001422 <ProcessReceivedMessage+0x4a>
 8001476:	2207      	movs	r2, #7
 8001478:	4b04      	ldr	r3, [pc, #16]	@ (800148c <ProcessReceivedMessage+0xb4>)
 800147a:	e7d2      	b.n	8001422 <ProcessReceivedMessage+0x4a>
 800147c:	2208      	movs	r2, #8
 800147e:	4b03      	ldr	r3, [pc, #12]	@ (800148c <ProcessReceivedMessage+0xb4>)
 8001480:	e7cf      	b.n	8001422 <ProcessReceivedMessage+0x4a>
 8001482:	46c0      	nop			@ (mov r8, r8)
 8001484:	20000584 	.word	0x20000584
 8001488:	20000580 	.word	0x20000580
 800148c:	200005a0 	.word	0x200005a0
 8001490:	2000059c 	.word	0x2000059c
 8001494:	20000598 	.word	0x20000598
 8001498:	2000058e 	.word	0x2000058e
 800149c:	20000592 	.word	0x20000592

080014a0 <SystemClock_Config>:
 80014a0:	2301      	movs	r3, #1
 80014a2:	492d      	ldr	r1, [pc, #180]	@ (8001558 <SystemClock_Config+0xb8>)
 80014a4:	b510      	push	{r4, lr}
 80014a6:	680a      	ldr	r2, [r1, #0]
 80014a8:	4c2c      	ldr	r4, [pc, #176]	@ (800155c <SystemClock_Config+0xbc>)
 80014aa:	439a      	bics	r2, r3
 80014ac:	431a      	orrs	r2, r3
 80014ae:	600a      	str	r2, [r1, #0]
 80014b0:	680a      	ldr	r2, [r1, #0]
 80014b2:	6822      	ldr	r2, [r4, #0]
 80014b4:	4313      	orrs	r3, r2
 80014b6:	6023      	str	r3, [r4, #0]
 80014b8:	2302      	movs	r3, #2
 80014ba:	6822      	ldr	r2, [r4, #0]
 80014bc:	421a      	tst	r2, r3
 80014be:	d0fc      	beq.n	80014ba <SystemClock_Config+0x1a>
 80014c0:	23f8      	movs	r3, #248	@ 0xf8
 80014c2:	6822      	ldr	r2, [r4, #0]
 80014c4:	439a      	bics	r2, r3
 80014c6:	3b78      	subs	r3, #120	@ 0x78
 80014c8:	4313      	orrs	r3, r2
 80014ca:	6023      	str	r3, [r4, #0]
 80014cc:	2301      	movs	r3, #1
 80014ce:	6b62      	ldr	r2, [r4, #52]	@ 0x34
 80014d0:	4313      	orrs	r3, r2
 80014d2:	6363      	str	r3, [r4, #52]	@ 0x34
 80014d4:	2302      	movs	r3, #2
 80014d6:	6b62      	ldr	r2, [r4, #52]	@ 0x34
 80014d8:	421a      	tst	r2, r3
 80014da:	d0fc      	beq.n	80014d6 <SystemClock_Config+0x36>
 80014dc:	23f8      	movs	r3, #248	@ 0xf8
 80014de:	6b62      	ldr	r2, [r4, #52]	@ 0x34
 80014e0:	439a      	bics	r2, r3
 80014e2:	3b78      	subs	r3, #120	@ 0x78
 80014e4:	4313      	orrs	r3, r2
 80014e6:	6363      	str	r3, [r4, #52]	@ 0x34
 80014e8:	6862      	ldr	r2, [r4, #4]
 80014ea:	4b1d      	ldr	r3, [pc, #116]	@ (8001560 <SystemClock_Config+0xc0>)
 80014ec:	401a      	ands	r2, r3
 80014ee:	23a0      	movs	r3, #160	@ 0xa0
 80014f0:	039b      	lsls	r3, r3, #14
 80014f2:	4313      	orrs	r3, r2
 80014f4:	220f      	movs	r2, #15
 80014f6:	6063      	str	r3, [r4, #4]
 80014f8:	6ae3      	ldr	r3, [r4, #44]	@ 0x2c
 80014fa:	4393      	bics	r3, r2
 80014fc:	62e3      	str	r3, [r4, #44]	@ 0x2c
 80014fe:	2380      	movs	r3, #128	@ 0x80
 8001500:	6822      	ldr	r2, [r4, #0]
 8001502:	045b      	lsls	r3, r3, #17
 8001504:	4313      	orrs	r3, r2
 8001506:	6023      	str	r3, [r4, #0]
 8001508:	2380      	movs	r3, #128	@ 0x80
 800150a:	049b      	lsls	r3, r3, #18
 800150c:	6822      	ldr	r2, [r4, #0]
 800150e:	421a      	tst	r2, r3
 8001510:	d0fc      	beq.n	800150c <SystemClock_Config+0x6c>
 8001512:	22f0      	movs	r2, #240	@ 0xf0
 8001514:	6863      	ldr	r3, [r4, #4]
 8001516:	4393      	bics	r3, r2
 8001518:	6063      	str	r3, [r4, #4]
 800151a:	6863      	ldr	r3, [r4, #4]
 800151c:	4a11      	ldr	r2, [pc, #68]	@ (8001564 <SystemClock_Config+0xc4>)
 800151e:	4013      	ands	r3, r2
 8001520:	6063      	str	r3, [r4, #4]
 8001522:	2303      	movs	r3, #3
 8001524:	6862      	ldr	r2, [r4, #4]
 8001526:	439a      	bics	r2, r3
 8001528:	3b01      	subs	r3, #1
 800152a:	4313      	orrs	r3, r2
 800152c:	220c      	movs	r2, #12
 800152e:	6063      	str	r3, [r4, #4]
 8001530:	6863      	ldr	r3, [r4, #4]
 8001532:	4013      	ands	r3, r2
 8001534:	2b08      	cmp	r3, #8
 8001536:	d1fb      	bne.n	8001530 <SystemClock_Config+0x90>
 8001538:	480b      	ldr	r0, [pc, #44]	@ (8001568 <SystemClock_Config+0xc8>)
 800153a:	f002 f881 	bl	8003640 <LL_SetSystemCoreClock>
 800153e:	2002      	movs	r0, #2
 8001540:	f001 fce8 	bl	8002f14 <HAL_InitTick>
 8001544:	2204      	movs	r2, #4
 8001546:	6b63      	ldr	r3, [r4, #52]	@ 0x34
 8001548:	4393      	bics	r3, r2
 800154a:	6363      	str	r3, [r4, #52]	@ 0x34
 800154c:	6b23      	ldr	r3, [r4, #48]	@ 0x30
 800154e:	3a01      	subs	r2, #1
 8001550:	4393      	bics	r3, r2
 8001552:	6323      	str	r3, [r4, #48]	@ 0x30
 8001554:	bd10      	pop	{r4, pc}
 8001556:	46c0      	nop			@ (mov r8, r8)
 8001558:	40022000 	.word	0x40022000
 800155c:	40021000 	.word	0x40021000
 8001560:	ffc2ffff 	.word	0xffc2ffff
 8001564:	fffff8ff 	.word	0xfffff8ff
 8001568:	02dc6c00 	.word	0x02dc6c00

0800156c <main>:
 800156c:	b5f0      	push	{r4, r5, r6, r7, lr}
 800156e:	b09b      	sub	sp, #108	@ 0x6c
 8001570:	f001 fcf4 	bl	8002f5c <HAL_Init>
 8001574:	f7ff ff94 	bl	80014a0 <SystemClock_Config>
 8001578:	2208      	movs	r2, #8
 800157a:	2100      	movs	r1, #0
 800157c:	a80c      	add	r0, sp, #48	@ 0x30
 800157e:	f003 fca3 	bl	8004ec8 <memset>
 8001582:	2080      	movs	r0, #128	@ 0x80
 8001584:	2400      	movs	r4, #0
 8001586:	03c0      	lsls	r0, r0, #15
 8001588:	9417      	str	r4, [sp, #92]	@ 0x5c
 800158a:	f7ff fec9 	bl	8001320 <LL_AHB1_GRP1_EnableClock>
 800158e:	2080      	movs	r0, #128	@ 0x80
 8001590:	0280      	lsls	r0, r0, #10
 8001592:	f7ff fec5 	bl	8001320 <LL_AHB1_GRP1_EnableClock>
 8001596:	2080      	movs	r0, #128	@ 0x80
 8001598:	02c0      	lsls	r0, r0, #11
 800159a:	f7ff fec1 	bl	8001320 <LL_AHB1_GRP1_EnableClock>
 800159e:	2580      	movs	r5, #128	@ 0x80
 80015a0:	2290      	movs	r2, #144	@ 0x90
 80015a2:	2380      	movs	r3, #128	@ 0x80
 80015a4:	2601      	movs	r6, #1
 80015a6:	4ffe      	ldr	r7, [pc, #1016]	@ (80019a0 <main+0x434>)
 80015a8:	021b      	lsls	r3, r3, #8
 80015aa:	05d2      	lsls	r2, r2, #23
 80015ac:	012d      	lsls	r5, r5, #4
 80015ae:	62be      	str	r6, [r7, #40]	@ 0x28
 80015b0:	2080      	movs	r0, #128	@ 0x80
 80015b2:	6293      	str	r3, [r2, #40]	@ 0x28
 80015b4:	6195      	str	r5, [r2, #24]
 80015b6:	2240      	movs	r2, #64	@ 0x40
 80015b8:	a912      	add	r1, sp, #72	@ 0x48
 80015ba:	61ba      	str	r2, [r7, #24]
 80015bc:	61b8      	str	r0, [r7, #24]
 80015be:	0038      	movs	r0, r7
 80015c0:	9612      	str	r6, [sp, #72]	@ 0x48
 80015c2:	9613      	str	r6, [sp, #76]	@ 0x4c
 80015c4:	9414      	str	r4, [sp, #80]	@ 0x50
 80015c6:	9415      	str	r4, [sp, #84]	@ 0x54
 80015c8:	9416      	str	r4, [sp, #88]	@ 0x58
 80015ca:	f001 fdcf 	bl	800316c <LL_GPIO_Init>
 80015ce:	2090      	movs	r0, #144	@ 0x90
 80015d0:	9512      	str	r5, [sp, #72]	@ 0x48
 80015d2:	2502      	movs	r5, #2
 80015d4:	a912      	add	r1, sp, #72	@ 0x48
 80015d6:	05c0      	lsls	r0, r0, #23
 80015d8:	9613      	str	r6, [sp, #76]	@ 0x4c
 80015da:	9414      	str	r4, [sp, #80]	@ 0x50
 80015dc:	9415      	str	r4, [sp, #84]	@ 0x54
 80015de:	9516      	str	r5, [sp, #88]	@ 0x58
 80015e0:	f001 fdc4 	bl	800316c <LL_GPIO_Init>
 80015e4:	2180      	movs	r1, #128	@ 0x80
 80015e6:	2090      	movs	r0, #144	@ 0x90
 80015e8:	0149      	lsls	r1, r1, #5
 80015ea:	9112      	str	r1, [sp, #72]	@ 0x48
 80015ec:	05c0      	lsls	r0, r0, #23
 80015ee:	a912      	add	r1, sp, #72	@ 0x48
 80015f0:	9413      	str	r4, [sp, #76]	@ 0x4c
 80015f2:	9516      	str	r5, [sp, #88]	@ 0x58
 80015f4:	f001 fdba 	bl	800316c <LL_GPIO_Init>
 80015f8:	2240      	movs	r2, #64	@ 0x40
 80015fa:	a912      	add	r1, sp, #72	@ 0x48
 80015fc:	0038      	movs	r0, r7
 80015fe:	9212      	str	r2, [sp, #72]	@ 0x48
 8001600:	9613      	str	r6, [sp, #76]	@ 0x4c
 8001602:	9414      	str	r4, [sp, #80]	@ 0x50
 8001604:	9415      	str	r4, [sp, #84]	@ 0x54
 8001606:	9516      	str	r5, [sp, #88]	@ 0x58
 8001608:	f001 fdb0 	bl	800316c <LL_GPIO_Init>
 800160c:	2080      	movs	r0, #128	@ 0x80
 800160e:	a912      	add	r1, sp, #72	@ 0x48
 8001610:	9012      	str	r0, [sp, #72]	@ 0x48
 8001612:	0038      	movs	r0, r7
 8001614:	9613      	str	r6, [sp, #76]	@ 0x4c
 8001616:	9414      	str	r4, [sp, #80]	@ 0x50
 8001618:	9415      	str	r4, [sp, #84]	@ 0x54
 800161a:	9516      	str	r5, [sp, #88]	@ 0x58
 800161c:	f001 fda6 	bl	800316c <LL_GPIO_Init>
 8001620:	2380      	movs	r3, #128	@ 0x80
 8001622:	2090      	movs	r0, #144	@ 0x90
 8001624:	021b      	lsls	r3, r3, #8
 8001626:	a912      	add	r1, sp, #72	@ 0x48
 8001628:	05c0      	lsls	r0, r0, #23
 800162a:	9312      	str	r3, [sp, #72]	@ 0x48
 800162c:	9613      	str	r6, [sp, #76]	@ 0x4c
 800162e:	9414      	str	r4, [sp, #80]	@ 0x50
 8001630:	9415      	str	r4, [sp, #84]	@ 0x54
 8001632:	9416      	str	r4, [sp, #88]	@ 0x58
 8001634:	f001 fd9a 	bl	800316c <LL_GPIO_Init>
 8001638:	23f0      	movs	r3, #240	@ 0xf0
 800163a:	49da      	ldr	r1, [pc, #872]	@ (80019a4 <main+0x438>)
 800163c:	688a      	ldr	r2, [r1, #8]
 800163e:	439a      	bics	r2, r3
 8001640:	3ba0      	subs	r3, #160	@ 0xa0
 8001642:	4313      	orrs	r3, r2
 8001644:	608b      	str	r3, [r1, #8]
 8001646:	210c      	movs	r1, #12
 8001648:	68fb      	ldr	r3, [r7, #12]
 800164a:	438b      	bics	r3, r1
 800164c:	60fb      	str	r3, [r7, #12]
 800164e:	683b      	ldr	r3, [r7, #0]
 8001650:	438b      	bics	r3, r1
 8001652:	603b      	str	r3, [r7, #0]
 8001654:	4669      	mov	r1, sp
 8001656:	2336      	movs	r3, #54	@ 0x36
 8001658:	18cb      	adds	r3, r1, r3
 800165a:	950c      	str	r5, [sp, #48]	@ 0x30
 800165c:	868e      	strh	r6, [r1, #52]	@ 0x34
 800165e:	701e      	strb	r6, [r3, #0]
 8001660:	ae0c      	add	r6, sp, #48	@ 0x30
 8001662:	0030      	movs	r0, r6
 8001664:	f001 fd34 	bl	80030d0 <LL_EXTI_Init>
 8001668:	ae06      	add	r6, sp, #24
 800166a:	2001      	movs	r0, #1
 800166c:	f7ff fe58 	bl	8001320 <LL_AHB1_GRP1_EnableClock>
 8001670:	0021      	movs	r1, r4
 8001672:	2210      	movs	r2, #16
 8001674:	0030      	movs	r0, r6
 8001676:	ae0c      	add	r6, sp, #48	@ 0x30
 8001678:	f003 fc26 	bl	8004ec8 <memset>
 800167c:	0021      	movs	r1, r4
 800167e:	2214      	movs	r2, #20
 8001680:	0030      	movs	r0, r6
 8001682:	f003 fc21 	bl	8004ec8 <memset>
 8001686:	2210      	movs	r2, #16
 8001688:	0021      	movs	r1, r4
 800168a:	a814      	add	r0, sp, #80	@ 0x50
 800168c:	f003 fc1c 	bl	8004ec8 <memset>
 8001690:	2080      	movs	r0, #128	@ 0x80
 8001692:	0080      	lsls	r0, r0, #2
 8001694:	f7ff fe52 	bl	800133c <LL_APB1_GRP2_EnableClock>
 8001698:	2080      	movs	r0, #128	@ 0x80
 800169a:	0280      	lsls	r0, r0, #10
 800169c:	f7ff fe40 	bl	8001320 <LL_AHB1_GRP1_EnableClock>
 80016a0:	2080      	movs	r0, #128	@ 0x80
 80016a2:	02c0      	lsls	r0, r0, #11
 80016a4:	f7ff fe3c 	bl	8001320 <LL_AHB1_GRP1_EnableClock>
 80016a8:	2308      	movs	r3, #8
 80016aa:	2090      	movs	r0, #144	@ 0x90
 80016ac:	9312      	str	r3, [sp, #72]	@ 0x48
 80016ae:	a912      	add	r1, sp, #72	@ 0x48
 80016b0:	3b05      	subs	r3, #5
 80016b2:	05c0      	lsls	r0, r0, #23
 80016b4:	001e      	movs	r6, r3
 80016b6:	9313      	str	r3, [sp, #76]	@ 0x4c
 80016b8:	9416      	str	r4, [sp, #88]	@ 0x58
 80016ba:	f001 fd57 	bl	800316c <LL_GPIO_Init>
 80016be:	2110      	movs	r1, #16
 80016c0:	2090      	movs	r0, #144	@ 0x90
 80016c2:	9112      	str	r1, [sp, #72]	@ 0x48
 80016c4:	05c0      	lsls	r0, r0, #23
 80016c6:	a912      	add	r1, sp, #72	@ 0x48
 80016c8:	9613      	str	r6, [sp, #76]	@ 0x4c
 80016ca:	9416      	str	r4, [sp, #88]	@ 0x58
 80016cc:	f001 fd4e 	bl	800316c <LL_GPIO_Init>
 80016d0:	a812      	add	r0, sp, #72	@ 0x48
 80016d2:	0001      	movs	r1, r0
 80016d4:	2090      	movs	r0, #144	@ 0x90
 80016d6:	2320      	movs	r3, #32
 80016d8:	05c0      	lsls	r0, r0, #23
 80016da:	9312      	str	r3, [sp, #72]	@ 0x48
 80016dc:	9613      	str	r6, [sp, #76]	@ 0x4c
 80016de:	9416      	str	r4, [sp, #88]	@ 0x58
 80016e0:	f001 fd44 	bl	800316c <LL_GPIO_Init>
 80016e4:	9613      	str	r6, [sp, #76]	@ 0x4c
 80016e6:	ae12      	add	r6, sp, #72	@ 0x48
 80016e8:	0031      	movs	r1, r6
 80016ea:	48af      	ldr	r0, [pc, #700]	@ (80019a8 <main+0x43c>)
 80016ec:	9512      	str	r5, [sp, #72]	@ 0x48
 80016ee:	9416      	str	r4, [sp, #88]	@ 0x58
 80016f0:	f001 fd3c 	bl	800316c <LL_GPIO_Init>
 80016f4:	4bad      	ldr	r3, [pc, #692]	@ (80019ac <main+0x440>)
 80016f6:	49ae      	ldr	r1, [pc, #696]	@ (80019b0 <main+0x444>)
 80016f8:	681a      	ldr	r2, [r3, #0]
 80016fa:	2640      	movs	r6, #64	@ 0x40
 80016fc:	400a      	ands	r2, r1
 80016fe:	601a      	str	r2, [r3, #0]
 8001700:	681a      	ldr	r2, [r3, #0]
 8001702:	49ac      	ldr	r1, [pc, #688]	@ (80019b4 <main+0x448>)
 8001704:	2080      	movs	r0, #128	@ 0x80
 8001706:	400a      	ands	r2, r1
 8001708:	2180      	movs	r1, #128	@ 0x80
 800170a:	0189      	lsls	r1, r1, #6
 800170c:	430a      	orrs	r2, r1
 800170e:	2120      	movs	r1, #32
 8001710:	601a      	str	r2, [r3, #0]
 8001712:	681a      	ldr	r2, [r3, #0]
 8001714:	438a      	bics	r2, r1
 8001716:	430a      	orrs	r2, r1
 8001718:	601a      	str	r2, [r3, #0]
 800171a:	681a      	ldr	r2, [r3, #0]
 800171c:	43b2      	bics	r2, r6
 800171e:	601a      	str	r2, [r3, #0]
 8001720:	681a      	ldr	r2, [r3, #0]
 8001722:	4ea5      	ldr	r6, [pc, #660]	@ (80019b8 <main+0x44c>)
 8001724:	4382      	bics	r2, r0
 8001726:	4302      	orrs	r2, r0
 8001728:	601a      	str	r2, [r3, #0]
 800172a:	681a      	ldr	r2, [r3, #0]
 800172c:	48a3      	ldr	r0, [pc, #652]	@ (80019bc <main+0x450>)
 800172e:	4032      	ands	r2, r6
 8001730:	2680      	movs	r6, #128	@ 0x80
 8001732:	0076      	lsls	r6, r6, #1
 8001734:	4332      	orrs	r2, r6
 8001736:	601a      	str	r2, [r3, #0]
 8001738:	681a      	ldr	r2, [r3, #0]
 800173a:	4ea1      	ldr	r6, [pc, #644]	@ (80019c0 <main+0x454>)
 800173c:	4002      	ands	r2, r0
 800173e:	2080      	movs	r0, #128	@ 0x80
 8001740:	00c0      	lsls	r0, r0, #3
 8001742:	4302      	orrs	r2, r0
 8001744:	601a      	str	r2, [r3, #0]
 8001746:	2208      	movs	r2, #8
 8001748:	6ab3      	ldr	r3, [r6, #40]	@ 0x28
 800174a:	0030      	movs	r0, r6
 800174c:	4313      	orrs	r3, r2
 800174e:	62b3      	str	r3, [r6, #40]	@ 0x28
 8001750:	6ab3      	ldr	r3, [r6, #40]	@ 0x28
 8001752:	1892      	adds	r2, r2, r2
 8001754:	4313      	orrs	r3, r2
 8001756:	000a      	movs	r2, r1
 8001758:	62b3      	str	r3, [r6, #40]	@ 0x28
 800175a:	6ab3      	ldr	r3, [r6, #40]	@ 0x28
 800175c:	430b      	orrs	r3, r1
 800175e:	62b3      	str	r3, [r6, #40]	@ 0x28
 8001760:	6ab3      	ldr	r3, [r6, #40]	@ 0x28
 8001762:	31e1      	adds	r1, #225	@ 0xe1
 8001764:	31ff      	adds	r1, #255	@ 0xff
 8001766:	430b      	orrs	r3, r1
 8001768:	62b3      	str	r3, [r6, #40]	@ 0x28
 800176a:	a906      	add	r1, sp, #24
 800176c:	9208      	str	r2, [sp, #32]
 800176e:	9406      	str	r4, [sp, #24]
 8001770:	9407      	str	r4, [sp, #28]
 8001772:	9409      	str	r4, [sp, #36]	@ 0x24
 8001774:	f001 fc76 	bl	8003064 <LL_ADC_Init>
 8001778:	2080      	movs	r0, #128	@ 0x80
 800177a:	2303      	movs	r3, #3
 800177c:	00c0      	lsls	r0, r0, #3
 800177e:	900c      	str	r0, [sp, #48]	@ 0x30
 8001780:	a90c      	add	r1, sp, #48	@ 0x30
 8001782:	0030      	movs	r0, r6
 8001784:	940d      	str	r4, [sp, #52]	@ 0x34
 8001786:	940e      	str	r4, [sp, #56]	@ 0x38
 8001788:	930f      	str	r3, [sp, #60]	@ 0x3c
 800178a:	9410      	str	r4, [sp, #64]	@ 0x40
 800178c:	f001 fc86 	bl	800309c <LL_ADC_REG_Init>
 8001790:	2204      	movs	r2, #4
 8001792:	2107      	movs	r1, #7
 8001794:	2080      	movs	r0, #128	@ 0x80
 8001796:	68f3      	ldr	r3, [r6, #12]
 8001798:	00c0      	lsls	r0, r0, #3
 800179a:	4393      	bics	r3, r2
 800179c:	60f3      	str	r3, [r6, #12]
 800179e:	6973      	ldr	r3, [r6, #20]
 80017a0:	438b      	bics	r3, r1
 80017a2:	3906      	subs	r1, #6
 80017a4:	430b      	orrs	r3, r1
 80017a6:	6173      	str	r3, [r6, #20]
 80017a8:	6873      	ldr	r3, [r6, #4]
 80017aa:	0021      	movs	r1, r4
 80017ac:	4393      	bics	r3, r2
 80017ae:	6073      	str	r3, [r6, #4]
 80017b0:	6873      	ldr	r3, [r6, #4]
 80017b2:	1892      	adds	r2, r2, r2
 80017b4:	4393      	bics	r3, r2
 80017b6:	6073      	str	r3, [r6, #4]
 80017b8:	68f3      	ldr	r3, [r6, #12]
 80017ba:	4a80      	ldr	r2, [pc, #512]	@ (80019bc <main+0x450>)
 80017bc:	4013      	ands	r3, r2
 80017be:	4303      	orrs	r3, r0
 80017c0:	60f3      	str	r3, [r6, #12]
 80017c2:	ae01      	add	r6, sp, #4
 80017c4:	2214      	movs	r2, #20
 80017c6:	0030      	movs	r0, r6
 80017c8:	ae12      	add	r6, sp, #72	@ 0x48
 80017ca:	f003 fb7d 	bl	8004ec8 <memset>
 80017ce:	0021      	movs	r1, r4
 80017d0:	2220      	movs	r2, #32
 80017d2:	0030      	movs	r0, r6
 80017d4:	ae06      	add	r6, sp, #24
 80017d6:	f003 fb77 	bl	8004ec8 <memset>
 80017da:	0021      	movs	r1, r4
 80017dc:	2218      	movs	r2, #24
 80017de:	0030      	movs	r0, r6
 80017e0:	f003 fb72 	bl	8004ec8 <memset>
 80017e4:	2080      	movs	r0, #128	@ 0x80
 80017e6:	0100      	lsls	r0, r0, #4
 80017e8:	f7ff fda8 	bl	800133c <LL_APB1_GRP2_EnableClock>
 80017ec:	2080      	movs	r0, #128	@ 0x80
 80017ee:	02c0      	lsls	r0, r0, #11
 80017f0:	f7ff fd96 	bl	8001320 <LL_AHB1_GRP1_EnableClock>
 80017f4:	2280      	movs	r2, #128	@ 0x80
 80017f6:	ae0c      	add	r6, sp, #48	@ 0x30
 80017f8:	0031      	movs	r1, r6
 80017fa:	466e      	mov	r6, sp
 80017fc:	0152      	lsls	r2, r2, #5
 80017fe:	486a      	ldr	r0, [pc, #424]	@ (80019a8 <main+0x43c>)
 8001800:	920c      	str	r2, [sp, #48]	@ 0x30
 8001802:	950d      	str	r5, [sp, #52]	@ 0x34
 8001804:	940e      	str	r4, [sp, #56]	@ 0x38
 8001806:	940f      	str	r4, [sp, #60]	@ 0x3c
 8001808:	9510      	str	r5, [sp, #64]	@ 0x40
 800180a:	9511      	str	r5, [sp, #68]	@ 0x44
 800180c:	f001 fcae 	bl	800316c <LL_GPIO_Init>
 8001810:	2220      	movs	r2, #32
 8001812:	80b4      	strh	r4, [r6, #4]
 8001814:	2680      	movs	r6, #128	@ 0x80
 8001816:	23fa      	movs	r3, #250	@ 0xfa
 8001818:	9202      	str	r2, [sp, #8]
 800181a:	2101      	movs	r1, #1
 800181c:	466a      	mov	r2, sp
 800181e:	0076      	lsls	r6, r6, #1
 8001820:	00db      	lsls	r3, r3, #3
 8001822:	9604      	str	r6, [sp, #16]
 8001824:	4e67      	ldr	r6, [pc, #412]	@ (80019c4 <main+0x458>)
 8001826:	9303      	str	r3, [sp, #12]
 8001828:	7511      	strb	r1, [r2, #20]
 800182a:	aa01      	add	r2, sp, #4
 800182c:	0011      	movs	r1, r2
 800182e:	0030      	movs	r0, r6
 8001830:	f001 fd5a 	bl	80032e8 <LL_TIM_Init>
 8001834:	2080      	movs	r0, #128	@ 0x80
 8001836:	6833      	ldr	r3, [r6, #0]
 8001838:	2101      	movs	r1, #1
 800183a:	4383      	bics	r3, r0
 800183c:	6033      	str	r3, [r6, #0]
 800183e:	0030      	movs	r0, r6
 8001840:	f7ff fdaa 	bl	8001398 <LL_TIM_OC_EnablePreload>
 8001844:	2260      	movs	r2, #96	@ 0x60
 8001846:	2101      	movs	r1, #1
 8001848:	0030      	movs	r0, r6
 800184a:	9212      	str	r2, [sp, #72]	@ 0x48
 800184c:	aa12      	add	r2, sp, #72	@ 0x48
 800184e:	9413      	str	r4, [sp, #76]	@ 0x4c
 8001850:	9414      	str	r4, [sp, #80]	@ 0x50
 8001852:	9415      	str	r4, [sp, #84]	@ 0x54
 8001854:	9416      	str	r4, [sp, #88]	@ 0x58
 8001856:	9417      	str	r4, [sp, #92]	@ 0x5c
 8001858:	9418      	str	r4, [sp, #96]	@ 0x60
 800185a:	9419      	str	r4, [sp, #100]	@ 0x64
 800185c:	f001 fd8c 	bl	8003378 <LL_TIM_OC_Init>
 8001860:	0030      	movs	r0, r6
 8001862:	2101      	movs	r1, #1
 8001864:	f7ff fd78 	bl	8001358 <LL_TIM_OC_DisableFast>
 8001868:	0030      	movs	r0, r6
 800186a:	2110      	movs	r1, #16
 800186c:	f7ff fd94 	bl	8001398 <LL_TIM_OC_EnablePreload>
 8001870:	aa12      	add	r2, sp, #72	@ 0x48
 8001872:	2110      	movs	r1, #16
 8001874:	0030      	movs	r0, r6
 8001876:	9413      	str	r4, [sp, #76]	@ 0x4c
 8001878:	9414      	str	r4, [sp, #80]	@ 0x50
 800187a:	f001 fd7d 	bl	8003378 <LL_TIM_OC_Init>
 800187e:	0030      	movs	r0, r6
 8001880:	2110      	movs	r1, #16
 8001882:	f7ff fd69 	bl	8001358 <LL_TIM_OC_DisableFast>
 8001886:	2180      	movs	r1, #128	@ 0x80
 8001888:	0030      	movs	r0, r6
 800188a:	0049      	lsls	r1, r1, #1
 800188c:	f7ff fd84 	bl	8001398 <LL_TIM_OC_EnablePreload>
 8001890:	2180      	movs	r1, #128	@ 0x80
 8001892:	aa12      	add	r2, sp, #72	@ 0x48
 8001894:	0030      	movs	r0, r6
 8001896:	0049      	lsls	r1, r1, #1
 8001898:	9413      	str	r4, [sp, #76]	@ 0x4c
 800189a:	9414      	str	r4, [sp, #80]	@ 0x50
 800189c:	f001 fd6c 	bl	8003378 <LL_TIM_OC_Init>
 80018a0:	2180      	movs	r1, #128	@ 0x80
 80018a2:	0030      	movs	r0, r6
 80018a4:	0049      	lsls	r1, r1, #1
 80018a6:	f7ff fd57 	bl	8001358 <LL_TIM_OC_DisableFast>
 80018aa:	2180      	movs	r1, #128	@ 0x80
 80018ac:	0030      	movs	r0, r6
 80018ae:	0149      	lsls	r1, r1, #5
 80018b0:	f7ff fd72 	bl	8001398 <LL_TIM_OC_EnablePreload>
 80018b4:	2270      	movs	r2, #112	@ 0x70
 80018b6:	a912      	add	r1, sp, #72	@ 0x48
 80018b8:	9212      	str	r2, [sp, #72]	@ 0x48
 80018ba:	000a      	movs	r2, r1
 80018bc:	2180      	movs	r1, #128	@ 0x80
 80018be:	4b42      	ldr	r3, [pc, #264]	@ (80019c8 <main+0x45c>)
 80018c0:	0030      	movs	r0, r6
 80018c2:	0149      	lsls	r1, r1, #5
 80018c4:	9315      	str	r3, [sp, #84]	@ 0x54
 80018c6:	9413      	str	r4, [sp, #76]	@ 0x4c
 80018c8:	9414      	str	r4, [sp, #80]	@ 0x50
 80018ca:	f001 fd55 	bl	8003378 <LL_TIM_OC_Init>
 80018ce:	2180      	movs	r1, #128	@ 0x80
 80018d0:	0030      	movs	r0, r6
 80018d2:	0149      	lsls	r1, r1, #5
 80018d4:	f7ff fd40 	bl	8001358 <LL_TIM_OC_DisableFast>
 80018d8:	2270      	movs	r2, #112	@ 0x70
 80018da:	6873      	ldr	r3, [r6, #4]
 80018dc:	2080      	movs	r0, #128	@ 0x80
 80018de:	4393      	bics	r3, r2
 80018e0:	4313      	orrs	r3, r2
 80018e2:	2180      	movs	r1, #128	@ 0x80
 80018e4:	2280      	movs	r2, #128	@ 0x80
 80018e6:	6073      	str	r3, [r6, #4]
 80018e8:	68b3      	ldr	r3, [r6, #8]
 80018ea:	0112      	lsls	r2, r2, #4
 80018ec:	4383      	bics	r3, r0
 80018ee:	0049      	lsls	r1, r1, #1
 80018f0:	60b3      	str	r3, [r6, #8]
 80018f2:	2080      	movs	r0, #128	@ 0x80
 80018f4:	9206      	str	r2, [sp, #24]
 80018f6:	9108      	str	r1, [sp, #32]
 80018f8:	2224      	movs	r2, #36	@ 0x24
 80018fa:	4669      	mov	r1, sp
 80018fc:	2307      	movs	r3, #7
 80018fe:	1889      	adds	r1, r1, r2
 8001900:	00c0      	lsls	r0, r0, #3
 8001902:	2280      	movs	r2, #128	@ 0x80
 8001904:	9007      	str	r0, [sp, #28]
 8001906:	700b      	strb	r3, [r1, #0]
 8001908:	4669      	mov	r1, sp
 800190a:	0152      	lsls	r2, r2, #5
 800190c:	84ca      	strh	r2, [r1, #38]	@ 0x26
 800190e:	2180      	movs	r1, #128	@ 0x80
 8001910:	0189      	lsls	r1, r1, #6
 8001912:	0030      	movs	r0, r6
 8001914:	910a      	str	r1, [sp, #40]	@ 0x28
 8001916:	a906      	add	r1, sp, #24
 8001918:	940b      	str	r4, [sp, #44]	@ 0x2c
 800191a:	f001 fe1f 	bl	800355c <LL_TIM_BDTR_Init>
 800191e:	2080      	movs	r0, #128	@ 0x80
 8001920:	02c0      	lsls	r0, r0, #11
 8001922:	f7ff fcfd 	bl	8001320 <LL_AHB1_GRP1_EnableClock>
 8001926:	2080      	movs	r0, #128	@ 0x80
 8001928:	0280      	lsls	r0, r0, #10
 800192a:	f7ff fcf9 	bl	8001320 <LL_AHB1_GRP1_EnableClock>
 800192e:	2180      	movs	r1, #128	@ 0x80
 8001930:	2303      	movs	r3, #3
 8001932:	0189      	lsls	r1, r1, #6
 8001934:	910c      	str	r1, [sp, #48]	@ 0x30
 8001936:	481c      	ldr	r0, [pc, #112]	@ (80019a8 <main+0x43c>)
 8001938:	a90c      	add	r1, sp, #48	@ 0x30
 800193a:	001e      	movs	r6, r3
 800193c:	930e      	str	r3, [sp, #56]	@ 0x38
 800193e:	950d      	str	r5, [sp, #52]	@ 0x34
 8001940:	940f      	str	r4, [sp, #60]	@ 0x3c
 8001942:	9510      	str	r5, [sp, #64]	@ 0x40
 8001944:	9511      	str	r5, [sp, #68]	@ 0x44
 8001946:	f001 fc11 	bl	800316c <LL_GPIO_Init>
 800194a:	2180      	movs	r1, #128	@ 0x80
 800194c:	01c9      	lsls	r1, r1, #7
 800194e:	910c      	str	r1, [sp, #48]	@ 0x30
 8001950:	4815      	ldr	r0, [pc, #84]	@ (80019a8 <main+0x43c>)
 8001952:	a90c      	add	r1, sp, #48	@ 0x30
 8001954:	950d      	str	r5, [sp, #52]	@ 0x34
 8001956:	960e      	str	r6, [sp, #56]	@ 0x38
 8001958:	940f      	str	r4, [sp, #60]	@ 0x3c
 800195a:	9510      	str	r5, [sp, #64]	@ 0x40
 800195c:	9511      	str	r5, [sp, #68]	@ 0x44
 800195e:	f001 fc05 	bl	800316c <LL_GPIO_Init>
 8001962:	2380      	movs	r3, #128	@ 0x80
 8001964:	a90c      	add	r1, sp, #48	@ 0x30
 8001966:	021b      	lsls	r3, r3, #8
 8001968:	480f      	ldr	r0, [pc, #60]	@ (80019a8 <main+0x43c>)
 800196a:	930c      	str	r3, [sp, #48]	@ 0x30
 800196c:	950d      	str	r5, [sp, #52]	@ 0x34
 800196e:	960e      	str	r6, [sp, #56]	@ 0x38
 8001970:	940f      	str	r4, [sp, #60]	@ 0x3c
 8001972:	9510      	str	r5, [sp, #64]	@ 0x40
 8001974:	9511      	str	r5, [sp, #68]	@ 0x44
 8001976:	f001 fbf9 	bl	800316c <LL_GPIO_Init>
 800197a:	2380      	movs	r3, #128	@ 0x80
 800197c:	2090      	movs	r0, #144	@ 0x90
 800197e:	005b      	lsls	r3, r3, #1
 8001980:	930c      	str	r3, [sp, #48]	@ 0x30
 8001982:	ab0c      	add	r3, sp, #48	@ 0x30
 8001984:	0019      	movs	r1, r3
 8001986:	05c0      	lsls	r0, r0, #23
 8001988:	950d      	str	r5, [sp, #52]	@ 0x34
 800198a:	960e      	str	r6, [sp, #56]	@ 0x38
 800198c:	940f      	str	r4, [sp, #60]	@ 0x3c
 800198e:	9510      	str	r5, [sp, #64]	@ 0x40
 8001990:	9511      	str	r5, [sp, #68]	@ 0x44
 8001992:	f001 fbeb 	bl	800316c <LL_GPIO_Init>
 8001996:	2380      	movs	r3, #128	@ 0x80
 8001998:	2090      	movs	r0, #144	@ 0x90
 800199a:	009b      	lsls	r3, r3, #2
 800199c:	930c      	str	r3, [sp, #48]	@ 0x30
 800199e:	e015      	b.n	80019cc <main+0x460>
 80019a0:	48001400 	.word	0x48001400
 80019a4:	40010000 	.word	0x40010000
 80019a8:	48000400 	.word	0x48000400
 80019ac:	40020008 	.word	0x40020008
 80019b0:	ffffbfef 	.word	0xffffbfef
 80019b4:	ffffcfff 	.word	0xffffcfff
 80019b8:	fffffcff 	.word	0xfffffcff
 80019bc:	fffff3ff 	.word	0xfffff3ff
 80019c0:	40012400 	.word	0x40012400
 80019c4:	40012c00 	.word	0x40012c00
 80019c8:	000007cf 	.word	0x000007cf
 80019cc:	ab0c      	add	r3, sp, #48	@ 0x30
 80019ce:	0019      	movs	r1, r3
 80019d0:	05c0      	lsls	r0, r0, #23
 80019d2:	950d      	str	r5, [sp, #52]	@ 0x34
 80019d4:	960e      	str	r6, [sp, #56]	@ 0x38
 80019d6:	940f      	str	r4, [sp, #60]	@ 0x3c
 80019d8:	9510      	str	r5, [sp, #64]	@ 0x40
 80019da:	9511      	str	r5, [sp, #68]	@ 0x44
 80019dc:	f001 fbc6 	bl	800316c <LL_GPIO_Init>
 80019e0:	2080      	movs	r0, #128	@ 0x80
 80019e2:	00c0      	lsls	r0, r0, #3
 80019e4:	900c      	str	r0, [sp, #48]	@ 0x30
 80019e6:	2090      	movs	r0, #144	@ 0x90
 80019e8:	960e      	str	r6, [sp, #56]	@ 0x38
 80019ea:	ae0c      	add	r6, sp, #48	@ 0x30
 80019ec:	0031      	movs	r1, r6
 80019ee:	05c0      	lsls	r0, r0, #23
 80019f0:	950d      	str	r5, [sp, #52]	@ 0x34
 80019f2:	940f      	str	r4, [sp, #60]	@ 0x3c
 80019f4:	9510      	str	r5, [sp, #64]	@ 0x40
 80019f6:	9511      	str	r5, [sp, #68]	@ 0x44
 80019f8:	f001 fbb8 	bl	800316c <LL_GPIO_Init>
 80019fc:	2214      	movs	r2, #20
 80019fe:	0021      	movs	r1, r4
 8001a00:	0030      	movs	r0, r6
 8001a02:	f003 fa61 	bl	8004ec8 <memset>
 8001a06:	4bef      	ldr	r3, [pc, #956]	@ (8001dc4 <main+0x858>)
 8001a08:	2080      	movs	r0, #128	@ 0x80
 8001a0a:	001e      	movs	r6, r3
 8001a0c:	69db      	ldr	r3, [r3, #28]
 8001a0e:	0280      	lsls	r0, r0, #10
 8001a10:	432b      	orrs	r3, r5
 8001a12:	61f3      	str	r3, [r6, #28]
 8001a14:	69f3      	ldr	r3, [r6, #28]
 8001a16:	2640      	movs	r6, #64	@ 0x40
 8001a18:	402b      	ands	r3, r5
 8001a1a:	9300      	str	r3, [sp, #0]
 8001a1c:	9b00      	ldr	r3, [sp, #0]
 8001a1e:	f7ff fc7f 	bl	8001320 <LL_AHB1_GRP1_EnableClock>
 8001a22:	2090      	movs	r0, #144	@ 0x90
 8001a24:	9612      	str	r6, [sp, #72]	@ 0x48
 8001a26:	a912      	add	r1, sp, #72	@ 0x48
 8001a28:	3e3f      	subs	r6, #63	@ 0x3f
 8001a2a:	05c0      	lsls	r0, r0, #23
 8001a2c:	9513      	str	r5, [sp, #76]	@ 0x4c
 8001a2e:	9414      	str	r4, [sp, #80]	@ 0x50
 8001a30:	9415      	str	r4, [sp, #84]	@ 0x54
 8001a32:	9416      	str	r4, [sp, #88]	@ 0x58
 8001a34:	9617      	str	r6, [sp, #92]	@ 0x5c
 8001a36:	f001 fb99 	bl	800316c <LL_GPIO_Init>
 8001a3a:	2090      	movs	r0, #144	@ 0x90
 8001a3c:	2280      	movs	r2, #128	@ 0x80
 8001a3e:	9617      	str	r6, [sp, #92]	@ 0x5c
 8001a40:	ae12      	add	r6, sp, #72	@ 0x48
 8001a42:	0031      	movs	r1, r6
 8001a44:	05c0      	lsls	r0, r0, #23
 8001a46:	9212      	str	r2, [sp, #72]	@ 0x48
 8001a48:	9513      	str	r5, [sp, #76]	@ 0x4c
 8001a4a:	9414      	str	r4, [sp, #80]	@ 0x50
 8001a4c:	9415      	str	r4, [sp, #84]	@ 0x54
 8001a4e:	9416      	str	r4, [sp, #88]	@ 0x58
 8001a50:	f001 fb8c 	bl	800316c <LL_GPIO_Init>
 8001a54:	2207      	movs	r2, #7
 8001a56:	2003      	movs	r0, #3
 8001a58:	2101      	movs	r1, #1
 8001a5a:	4edb      	ldr	r6, [pc, #876]	@ (8001dc8 <main+0x85c>)
 8001a5c:	68b3      	ldr	r3, [r6, #8]
 8001a5e:	4393      	bics	r3, r2
 8001a60:	4303      	orrs	r3, r0
 8001a62:	60b3      	str	r3, [r6, #8]
 8001a64:	4bd9      	ldr	r3, [pc, #868]	@ (8001dcc <main+0x860>)
 8001a66:	681a      	ldr	r2, [r3, #0]
 8001a68:	4382      	bics	r2, r0
 8001a6a:	430a      	orrs	r2, r1
 8001a6c:	601a      	str	r2, [r3, #0]
 8001a6e:	681a      	ldr	r2, [r3, #0]
 8001a70:	3009      	adds	r0, #9
 8001a72:	4382      	bics	r2, r0
 8001a74:	601a      	str	r2, [r3, #0]
 8001a76:	681a      	ldr	r2, [r3, #0]
 8001a78:	30e4      	adds	r0, #228	@ 0xe4
 8001a7a:	4382      	bics	r2, r0
 8001a7c:	601a      	str	r2, [r3, #0]
 8001a7e:	6a32      	ldr	r2, [r6, #32]
 8001a80:	3109      	adds	r1, #9
 8001a82:	438a      	bics	r2, r1
 8001a84:	6232      	str	r2, [r6, #32]
 8001a86:	681a      	ldr	r2, [r3, #0]
 8001a88:	48d1      	ldr	r0, [pc, #836]	@ (8001dd0 <main+0x864>)
 8001a8a:	31f6      	adds	r1, #246	@ 0xf6
 8001a8c:	4002      	ands	r2, r0
 8001a8e:	430a      	orrs	r2, r1
 8001a90:	601a      	str	r2, [r3, #0]
 8001a92:	681a      	ldr	r2, [r3, #0]
 8001a94:	48cf      	ldr	r0, [pc, #828]	@ (8001dd4 <main+0x868>)
 8001a96:	49d0      	ldr	r1, [pc, #832]	@ (8001dd8 <main+0x86c>)
 8001a98:	4002      	ands	r2, r0
 8001a9a:	601a      	str	r2, [r3, #0]
 8001a9c:	681a      	ldr	r2, [r3, #0]
 8001a9e:	4668      	mov	r0, sp
 8001aa0:	400a      	ands	r2, r1
 8001aa2:	601a      	str	r2, [r3, #0]
 8001aa4:	22a0      	movs	r2, #160	@ 0xa0
 8001aa6:	6a33      	ldr	r3, [r6, #32]
 8001aa8:	4393      	bics	r3, r2
 8001aaa:	6233      	str	r3, [r6, #32]
 8001aac:	8604      	strh	r4, [r0, #48]	@ 0x30
 8001aae:	4bcb      	ldr	r3, [pc, #812]	@ (8001ddc <main+0x870>)
 8001ab0:	a80c      	add	r0, sp, #48	@ 0x30
 8001ab2:	0001      	movs	r1, r0
 8001ab4:	0030      	movs	r0, r6
 8001ab6:	940d      	str	r4, [sp, #52]	@ 0x34
 8001ab8:	930e      	str	r3, [sp, #56]	@ 0x38
 8001aba:	940f      	str	r4, [sp, #60]	@ 0x3c
 8001abc:	f001 fc14 	bl	80032e8 <LL_TIM_Init>
 8001ac0:	2280      	movs	r2, #128	@ 0x80
 8001ac2:	2070      	movs	r0, #112	@ 0x70
 8001ac4:	6833      	ldr	r3, [r6, #0]
 8001ac6:	4393      	bics	r3, r2
 8001ac8:	6033      	str	r3, [r6, #0]
 8001aca:	6873      	ldr	r3, [r6, #4]
 8001acc:	4383      	bics	r3, r0
 8001ace:	6073      	str	r3, [r6, #4]
 8001ad0:	68b3      	ldr	r3, [r6, #8]
 8001ad2:	4393      	bics	r3, r2
 8001ad4:	60b3      	str	r3, [r6, #8]
 8001ad6:	f000 ff83 	bl	80029e0 <MX_MotorControl_Init>
 8001ada:	2032      	movs	r0, #50	@ 0x32
 8001adc:	0021      	movs	r1, r4
 8001ade:	2212      	movs	r2, #18
 8001ae0:	4468      	add	r0, sp
 8001ae2:	f003 f9f1 	bl	8004ec8 <memset>
 8001ae6:	2220      	movs	r2, #32
 8001ae8:	0021      	movs	r1, r4
 8001aea:	a812      	add	r0, sp, #72	@ 0x48
 8001aec:	f003 f9ec 	bl	8004ec8 <memset>
 8001af0:	2680      	movs	r6, #128	@ 0x80
 8001af2:	4bb4      	ldr	r3, [pc, #720]	@ (8001dc4 <main+0x858>)
 8001af4:	0076      	lsls	r6, r6, #1
 8001af6:	0019      	movs	r1, r3
 8001af8:	69db      	ldr	r3, [r3, #28]
 8001afa:	a80c      	add	r0, sp, #48	@ 0x30
 8001afc:	4333      	orrs	r3, r6
 8001afe:	61cb      	str	r3, [r1, #28]
 8001b00:	69cb      	ldr	r3, [r1, #28]
 8001b02:	0001      	movs	r1, r0
 8001b04:	4033      	ands	r3, r6
 8001b06:	466e      	mov	r6, sp
 8001b08:	9301      	str	r3, [sp, #4]
 8001b0a:	9b01      	ldr	r3, [sp, #4]
 8001b0c:	4bb4      	ldr	r3, [pc, #720]	@ (8001de0 <main+0x874>)
 8001b0e:	8633      	strh	r3, [r6, #48]	@ 0x30
 8001b10:	4eb4      	ldr	r6, [pc, #720]	@ (8001de4 <main+0x878>)
 8001b12:	0030      	movs	r0, r6
 8001b14:	f001 fbe8 	bl	80032e8 <LL_TIM_Init>
 8001b18:	2280      	movs	r2, #128	@ 0x80
 8001b1a:	6833      	ldr	r3, [r6, #0]
 8001b1c:	0030      	movs	r0, r6
 8001b1e:	4393      	bics	r3, r2
 8001b20:	6033      	str	r3, [r6, #0]
 8001b22:	2101      	movs	r1, #1
 8001b24:	f7ff fc38 	bl	8001398 <LL_TIM_OC_EnablePreload>
 8001b28:	2260      	movs	r2, #96	@ 0x60
 8001b2a:	a812      	add	r0, sp, #72	@ 0x48
 8001b2c:	2101      	movs	r1, #1
 8001b2e:	9212      	str	r2, [sp, #72]	@ 0x48
 8001b30:	0002      	movs	r2, r0
 8001b32:	0030      	movs	r0, r6
 8001b34:	9413      	str	r4, [sp, #76]	@ 0x4c
 8001b36:	9414      	str	r4, [sp, #80]	@ 0x50
 8001b38:	9415      	str	r4, [sp, #84]	@ 0x54
 8001b3a:	9416      	str	r4, [sp, #88]	@ 0x58
 8001b3c:	f001 fc1c 	bl	8003378 <LL_TIM_OC_Init>
 8001b40:	0030      	movs	r0, r6
 8001b42:	2101      	movs	r1, #1
 8001b44:	ae12      	add	r6, sp, #72	@ 0x48
 8001b46:	f7ff fc07 	bl	8001358 <LL_TIM_OC_DisableFast>
 8001b4a:	0021      	movs	r1, r4
 8001b4c:	2220      	movs	r2, #32
 8001b4e:	0030      	movs	r0, r6
 8001b50:	ae0c      	add	r6, sp, #48	@ 0x30
 8001b52:	f003 f9b9 	bl	8004ec8 <memset>
 8001b56:	2218      	movs	r2, #24
 8001b58:	0021      	movs	r1, r4
 8001b5a:	0030      	movs	r0, r6
 8001b5c:	f003 f9b4 	bl	8004ec8 <memset>
 8001b60:	2080      	movs	r0, #128	@ 0x80
 8001b62:	0280      	lsls	r0, r0, #10
 8001b64:	f7ff fbea 	bl	800133c <LL_APB1_GRP2_EnableClock>
 8001b68:	232f      	movs	r3, #47	@ 0x2f
 8001b6a:	4e9f      	ldr	r6, [pc, #636]	@ (8001de8 <main+0x87c>)
 8001b6c:	9306      	str	r3, [sp, #24]
 8001b6e:	9608      	str	r6, [sp, #32]
 8001b70:	4e9e      	ldr	r6, [pc, #632]	@ (8001dec <main+0x880>)
 8001b72:	ab06      	add	r3, sp, #24
 8001b74:	0019      	movs	r1, r3
 8001b76:	0030      	movs	r0, r6
 8001b78:	9407      	str	r4, [sp, #28]
 8001b7a:	9409      	str	r4, [sp, #36]	@ 0x24
 8001b7c:	940a      	str	r4, [sp, #40]	@ 0x28
 8001b7e:	f001 fbb3 	bl	80032e8 <LL_TIM_Init>
 8001b82:	2280      	movs	r2, #128	@ 0x80
 8001b84:	6833      	ldr	r3, [r6, #0]
 8001b86:	2101      	movs	r1, #1
 8001b88:	4393      	bics	r3, r2
 8001b8a:	6033      	str	r3, [r6, #0]
 8001b8c:	0030      	movs	r0, r6
 8001b8e:	f7ff fc03 	bl	8001398 <LL_TIM_OC_EnablePreload>
 8001b92:	2260      	movs	r2, #96	@ 0x60
 8001b94:	2101      	movs	r1, #1
 8001b96:	9212      	str	r2, [sp, #72]	@ 0x48
 8001b98:	0030      	movs	r0, r6
 8001b9a:	aa12      	add	r2, sp, #72	@ 0x48
 8001b9c:	9413      	str	r4, [sp, #76]	@ 0x4c
 8001b9e:	9414      	str	r4, [sp, #80]	@ 0x50
 8001ba0:	9415      	str	r4, [sp, #84]	@ 0x54
 8001ba2:	9416      	str	r4, [sp, #88]	@ 0x58
 8001ba4:	9417      	str	r4, [sp, #92]	@ 0x5c
 8001ba6:	9418      	str	r4, [sp, #96]	@ 0x60
 8001ba8:	9419      	str	r4, [sp, #100]	@ 0x64
 8001baa:	f001 fbe5 	bl	8003378 <LL_TIM_OC_Init>
 8001bae:	2101      	movs	r1, #1
 8001bb0:	0030      	movs	r0, r6
 8001bb2:	f7ff fbd1 	bl	8001358 <LL_TIM_OC_DisableFast>
 8001bb6:	233c      	movs	r3, #60	@ 0x3c
 8001bb8:	466a      	mov	r2, sp
 8001bba:	18d2      	adds	r2, r2, r3
 8001bbc:	940c      	str	r4, [sp, #48]	@ 0x30
 8001bbe:	940d      	str	r4, [sp, #52]	@ 0x34
 8001bc0:	940e      	str	r4, [sp, #56]	@ 0x38
 8001bc2:	2180      	movs	r1, #128	@ 0x80
 8001bc4:	7014      	strb	r4, [r2, #0]
 8001bc6:	466a      	mov	r2, sp
 8001bc8:	0189      	lsls	r1, r1, #6
 8001bca:	87d4      	strh	r4, [r2, #62]	@ 0x3e
 8001bcc:	aa0c      	add	r2, sp, #48	@ 0x30
 8001bce:	9110      	str	r1, [sp, #64]	@ 0x40
 8001bd0:	0030      	movs	r0, r6
 8001bd2:	0011      	movs	r1, r2
 8001bd4:	9411      	str	r4, [sp, #68]	@ 0x44
 8001bd6:	f001 fcc1 	bl	800355c <LL_TIM_BDTR_Init>
 8001bda:	0021      	movs	r1, r4
 8001bdc:	221c      	movs	r2, #28
 8001bde:	a812      	add	r0, sp, #72	@ 0x48
 8001be0:	f003 f972 	bl	8004ec8 <memset>
 8001be4:	2080      	movs	r0, #128	@ 0x80
 8001be6:	01c0      	lsls	r0, r0, #7
 8001be8:	f7ff fba8 	bl	800133c <LL_APB1_GRP2_EnableClock>
 8001bec:	2080      	movs	r0, #128	@ 0x80
 8001bee:	0280      	lsls	r0, r0, #10
 8001bf0:	f7ff fb96 	bl	8001320 <LL_AHB1_GRP1_EnableClock>
 8001bf4:	2080      	movs	r0, #128	@ 0x80
 8001bf6:	02c0      	lsls	r0, r0, #11
 8001bf8:	f7ff fb92 	bl	8001320 <LL_AHB1_GRP1_EnableClock>
 8001bfc:	2140      	movs	r1, #64	@ 0x40
 8001bfe:	2003      	movs	r0, #3
 8001c00:	aa0c      	add	r2, sp, #48	@ 0x30
 8001c02:	910c      	str	r1, [sp, #48]	@ 0x30
 8001c04:	900e      	str	r0, [sp, #56]	@ 0x38
 8001c06:	0011      	movs	r1, r2
 8001c08:	4879      	ldr	r0, [pc, #484]	@ (8001df0 <main+0x884>)
 8001c0a:	950d      	str	r5, [sp, #52]	@ 0x34
 8001c0c:	940f      	str	r4, [sp, #60]	@ 0x3c
 8001c0e:	9410      	str	r4, [sp, #64]	@ 0x40
 8001c10:	9411      	str	r4, [sp, #68]	@ 0x44
 8001c12:	f001 faab 	bl	800316c <LL_GPIO_Init>
 8001c16:	2003      	movs	r0, #3
 8001c18:	2380      	movs	r3, #128	@ 0x80
 8001c1a:	900e      	str	r0, [sp, #56]	@ 0x38
 8001c1c:	2090      	movs	r0, #144	@ 0x90
 8001c1e:	aa0c      	add	r2, sp, #48	@ 0x30
 8001c20:	0011      	movs	r1, r2
 8001c22:	021b      	lsls	r3, r3, #8
 8001c24:	950d      	str	r5, [sp, #52]	@ 0x34
 8001c26:	05c0      	lsls	r0, r0, #23
 8001c28:	3d01      	subs	r5, #1
 8001c2a:	930c      	str	r3, [sp, #48]	@ 0x30
 8001c2c:	940f      	str	r4, [sp, #60]	@ 0x3c
 8001c2e:	9410      	str	r4, [sp, #64]	@ 0x40
 8001c30:	9511      	str	r5, [sp, #68]	@ 0x44
 8001c32:	f001 fa9b 	bl	800316c <LL_GPIO_Init>
 8001c36:	2396      	movs	r3, #150	@ 0x96
 8001c38:	01db      	lsls	r3, r3, #7
 8001c3a:	9312      	str	r3, [sp, #72]	@ 0x48
 8001c3c:	230c      	movs	r3, #12
 8001c3e:	9413      	str	r4, [sp, #76]	@ 0x4c
 8001c40:	9414      	str	r4, [sp, #80]	@ 0x50
 8001c42:	9415      	str	r4, [sp, #84]	@ 0x54
 8001c44:	9417      	str	r4, [sp, #92]	@ 0x5c
 8001c46:	9418      	str	r4, [sp, #96]	@ 0x60
 8001c48:	4c6a      	ldr	r4, [pc, #424]	@ (8001df4 <main+0x888>)
 8001c4a:	aa12      	add	r2, sp, #72	@ 0x48
 8001c4c:	0011      	movs	r1, r2
 8001c4e:	0020      	movs	r0, r4
 8001c50:	9316      	str	r3, [sp, #88]	@ 0x58
 8001c52:	f001 fca7 	bl	80035a4 <LL_USART_Init>
 8001c56:	68a3      	ldr	r3, [r4, #8]
 8001c58:	4a67      	ldr	r2, [pc, #412]	@ (8001df8 <main+0x88c>)
 8001c5a:	20c3      	movs	r0, #195	@ 0xc3
 8001c5c:	4013      	ands	r3, r2
 8001c5e:	60a3      	str	r3, [r4, #8]
 8001c60:	6863      	ldr	r3, [r4, #4]
 8001c62:	4a66      	ldr	r2, [pc, #408]	@ (8001dfc <main+0x890>)
 8001c64:	0080      	lsls	r0, r0, #2
 8001c66:	4013      	ands	r3, r2
 8001c68:	222a      	movs	r2, #42	@ 0x2a
 8001c6a:	6063      	str	r3, [r4, #4]
 8001c6c:	68a3      	ldr	r3, [r4, #8]
 8001c6e:	4393      	bics	r3, r2
 8001c70:	60a3      	str	r3, [r4, #8]
 8001c72:	6823      	ldr	r3, [r4, #0]
 8001c74:	4a62      	ldr	r2, [pc, #392]	@ (8001e00 <main+0x894>)
 8001c76:	432b      	orrs	r3, r5
 8001c78:	6023      	str	r3, [r4, #0]
 8001c7a:	2348      	movs	r3, #72	@ 0x48
 8001c7c:	8523      	strh	r3, [r4, #40]	@ 0x28
 8001c7e:	4b61      	ldr	r3, [pc, #388]	@ (8001e04 <main+0x898>)
 8001c80:	2580      	movs	r5, #128	@ 0x80
 8001c82:	5819      	ldr	r1, [r3, r0]
 8001c84:	01ed      	lsls	r5, r5, #7
 8001c86:	4011      	ands	r1, r2
 8001c88:	5019      	str	r1, [r3, r0]
 8001c8a:	2180      	movs	r1, #128	@ 0x80
 8001c8c:	0189      	lsls	r1, r1, #6
 8001c8e:	6019      	str	r1, [r3, #0]
 8001c90:	3804      	subs	r0, #4
 8001c92:	5819      	ldr	r1, [r3, r0]
 8001c94:	4011      	ands	r1, r2
 8001c96:	4329      	orrs	r1, r5
 8001c98:	5019      	str	r1, [r3, r0]
 8001c9a:	2180      	movs	r1, #128	@ 0x80
 8001c9c:	20ff      	movs	r0, #255	@ 0xff
 8001c9e:	0089      	lsls	r1, r1, #2
 8001ca0:	6019      	str	r1, [r3, #0]
 8001ca2:	3111      	adds	r1, #17
 8001ca4:	31ff      	adds	r1, #255	@ 0xff
 8001ca6:	585d      	ldr	r5, [r3, r1]
 8001ca8:	4385      	bics	r5, r0
 8001caa:	383f      	subs	r0, #63	@ 0x3f
 8001cac:	4328      	orrs	r0, r5
 8001cae:	5058      	str	r0, [r3, r1]
 8001cb0:	2080      	movs	r0, #128	@ 0x80
 8001cb2:	0240      	lsls	r0, r0, #9
 8001cb4:	6018      	str	r0, [r3, #0]
 8001cb6:	20c1      	movs	r0, #193	@ 0xc1
 8001cb8:	0080      	lsls	r0, r0, #2
 8001cba:	581d      	ldr	r5, [r3, r0]
 8001cbc:	4684      	mov	ip, r0
 8001cbe:	20c0      	movs	r0, #192	@ 0xc0
 8001cc0:	4015      	ands	r5, r2
 8001cc2:	0200      	lsls	r0, r0, #8
 8001cc4:	4328      	orrs	r0, r5
 8001cc6:	4665      	mov	r5, ip
 8001cc8:	5158      	str	r0, [r3, r5]
 8001cca:	2020      	movs	r0, #32
 8001ccc:	2580      	movs	r5, #128	@ 0x80
 8001cce:	6018      	str	r0, [r3, #0]
 8001cd0:	5858      	ldr	r0, [r3, r1]
 8001cd2:	062d      	lsls	r5, r5, #24
 8001cd4:	0200      	lsls	r0, r0, #8
 8001cd6:	0a00      	lsrs	r0, r0, #8
 8001cd8:	4328      	orrs	r0, r5
 8001cda:	5058      	str	r0, [r3, r1]
 8001cdc:	2180      	movs	r1, #128	@ 0x80
 8001cde:	0309      	lsls	r1, r1, #12
 8001ce0:	6019      	str	r1, [r3, #0]
 8001ce2:	21c5      	movs	r1, #197	@ 0xc5
 8001ce4:	0089      	lsls	r1, r1, #2
 8001ce6:	5858      	ldr	r0, [r3, r1]
 8001ce8:	2501      	movs	r5, #1
 8001cea:	4002      	ands	r2, r0
 8001cec:	2080      	movs	r0, #128	@ 0x80
 8001cee:	0200      	lsls	r0, r0, #8
 8001cf0:	4302      	orrs	r2, r0
 8001cf2:	505a      	str	r2, [r3, r1]
 8001cf4:	2280      	movs	r2, #128	@ 0x80
 8001cf6:	20c0      	movs	r0, #192	@ 0xc0
 8001cf8:	0392      	lsls	r2, r2, #14
 8001cfa:	601a      	str	r2, [r3, #0]
 8001cfc:	3104      	adds	r1, #4
 8001cfe:	585a      	ldr	r2, [r3, r1]
 8001d00:	0600      	lsls	r0, r0, #24
 8001d02:	0212      	lsls	r2, r2, #8
 8001d04:	0a12      	lsrs	r2, r2, #8
 8001d06:	4302      	orrs	r2, r0
 8001d08:	505a      	str	r2, [r3, r1]
 8001d0a:	2280      	movs	r2, #128	@ 0x80
 8001d0c:	2020      	movs	r0, #32
 8001d0e:	0512      	lsls	r2, r2, #20
 8001d10:	601a      	str	r2, [r3, #0]
 8001d12:	68f3      	ldr	r3, [r6, #12]
 8001d14:	432b      	orrs	r3, r5
 8001d16:	60f3      	str	r3, [r6, #12]
 8001d18:	6833      	ldr	r3, [r6, #0]
 8001d1a:	432b      	orrs	r3, r5
 8001d1c:	6033      	str	r3, [r6, #0]
 8001d1e:	6823      	ldr	r3, [r4, #0]
 8001d20:	4303      	orrs	r3, r0
 8001d22:	6023      	str	r3, [r4, #0]
 8001d24:	61bd      	str	r5, [r7, #24]
 8001d26:	f000 f899 	bl	8001e5c <MC_StartMotor1>
 8001d2a:	f000 f8dd 	bl	8001ee8 <MC_GetAlignmentStatusMotor1>
 8001d2e:	2802      	cmp	r0, #2
 8001d30:	d10f      	bne.n	8001d52 <main+0x7e6>
 8001d32:	2501      	movs	r5, #1
 8001d34:	3062      	adds	r0, #98	@ 0x62
 8001d36:	f001 f933 	bl	8002fa0 <HAL_Delay>
 8001d3a:	4c33      	ldr	r4, [pc, #204]	@ (8001e08 <main+0x89c>)
 8001d3c:	62bd      	str	r5, [r7, #40]	@ 0x28
 8001d3e:	2300      	movs	r3, #0
 8001d40:	7023      	strb	r3, [r4, #0]
 8001d42:	f000 f8c9 	bl	8001ed8 <MC_GetOccurredFaultsMotor1>
 8001d46:	2800      	cmp	r0, #0
 8001d48:	d017      	beq.n	8001d7a <main+0x80e>
 8001d4a:	61bd      	str	r5, [r7, #24]
 8001d4c:	f000 f8bc 	bl	8001ec8 <MC_AcknowledgeFaultMotor1>
 8001d50:	e7f5      	b.n	8001d3e <main+0x7d2>
 8001d52:	f000 f8c1 	bl	8001ed8 <MC_GetOccurredFaultsMotor1>
 8001d56:	2800      	cmp	r0, #0
 8001d58:	d0e7      	beq.n	8001d2a <main+0x7be>
 8001d5a:	f000 f8b5 	bl	8001ec8 <MC_AcknowledgeFaultMotor1>
 8001d5e:	2401      	movs	r4, #1
 8001d60:	20fa      	movs	r0, #250	@ 0xfa
 8001d62:	62bc      	str	r4, [r7, #40]	@ 0x28
 8001d64:	0040      	lsls	r0, r0, #1
 8001d66:	f001 f91b 	bl	8002fa0 <HAL_Delay>
 8001d6a:	f000 f877 	bl	8001e5c <MC_StartMotor1>
 8001d6e:	20fa      	movs	r0, #250	@ 0xfa
 8001d70:	61bc      	str	r4, [r7, #24]
 8001d72:	0040      	lsls	r0, r0, #1
 8001d74:	f001 f914 	bl	8002fa0 <HAL_Delay>
 8001d78:	e7d7      	b.n	8001d2a <main+0x7be>
 8001d7a:	62bd      	str	r5, [r7, #40]	@ 0x28
 8001d7c:	7820      	ldrb	r0, [r4, #0]
 8001d7e:	3801      	subs	r0, #1
 8001d80:	2807      	cmp	r0, #7
 8001d82:	d8de      	bhi.n	8001d42 <main+0x7d6>
 8001d84:	f7fe f9c0 	bl	8000108 <__gnu_thumb1_case_sqi>
 8001d88:	160edd04 	.word	0x160edd04
 8001d8c:	5a4cdd07 	.word	0x5a4cdd07
 8001d90:	f000 f86c 	bl	8001e6c <MC_StopMotor1>
 8001d94:	e7d5      	b.n	8001d42 <main+0x7d6>
 8001d96:	4a1d      	ldr	r2, [pc, #116]	@ (8001e0c <main+0x8a0>)
 8001d98:	4b1d      	ldr	r3, [pc, #116]	@ (8001e10 <main+0x8a4>)
 8001d9a:	6811      	ldr	r1, [r2, #0]
 8001d9c:	6818      	ldr	r0, [r3, #0]
 8001d9e:	f000 f881 	bl	8001ea4 <MC_ProgramPositionCommandMotor1>
 8001da2:	e7ce      	b.n	8001d42 <main+0x7d6>
 8001da4:	4b1b      	ldr	r3, [pc, #108]	@ (8001e14 <main+0x8a8>)
 8001da6:	8819      	ldrh	r1, [r3, #0]
 8001da8:	4b1b      	ldr	r3, [pc, #108]	@ (8001e18 <main+0x8ac>)
 8001daa:	2000      	movs	r0, #0
 8001dac:	5e18      	ldrsh	r0, [r3, r0]
 8001dae:	f000 f865 	bl	8001e7c <MC_ProgramSpeedRampMotor1>
 8001db2:	e7c6      	b.n	8001d42 <main+0x7d6>
 8001db4:	4b17      	ldr	r3, [pc, #92]	@ (8001e14 <main+0x8a8>)
 8001db6:	8819      	ldrh	r1, [r3, #0]
 8001db8:	4b18      	ldr	r3, [pc, #96]	@ (8001e1c <main+0x8b0>)
 8001dba:	2000      	movs	r0, #0
 8001dbc:	5e18      	ldrsh	r0, [r3, r0]
 8001dbe:	f000 f867 	bl	8001e90 <MC_ProgramTorqueRampMotor1>
 8001dc2:	e7be      	b.n	8001d42 <main+0x7d6>
 8001dc4:	40021000 	.word	0x40021000
 8001dc8:	40000400 	.word	0x40000400
 8001dcc:	40000418 	.word	0x40000418
 8001dd0:	fffffcff 	.word	0xfffffcff
 8001dd4:	fffff3ff 	.word	0xfffff3ff
 8001dd8:	ffff0fff 	.word	0xffff0fff
 8001ddc:	00000fff 	.word	0x00000fff
 8001de0:	0000095f 	.word	0x0000095f
 8001de4:	40002000 	.word	0x40002000
 8001de8:	000007cf 	.word	0x000007cf
 8001dec:	40014400 	.word	0x40014400
 8001df0:	48000400 	.word	0x48000400
 8001df4:	40013800 	.word	0x40013800
 8001df8:	fffffbff 	.word	0xfffffbff
 8001dfc:	ffffb7ff 	.word	0xffffb7ff
 8001e00:	ffff00ff 	.word	0xffff00ff
 8001e04:	e000e100 	.word	0xe000e100
 8001e08:	200005a0 	.word	0x200005a0
 8001e0c:	20000598 	.word	0x20000598
 8001e10:	2000059c 	.word	0x2000059c
 8001e14:	2000058e 	.word	0x2000058e
 8001e18:	20000592 	.word	0x20000592
 8001e1c:	20000590 	.word	0x20000590
 8001e20:	f000 f86a 	bl	8001ef8 <MC_GetCurrentPosition1>
 8001e24:	4e0a      	ldr	r6, [pc, #40]	@ (8001e50 <main+0x8e4>)
 8001e26:	4b0b      	ldr	r3, [pc, #44]	@ (8001e54 <main+0x8e8>)
 8001e28:	0031      	movs	r1, r6
 8001e2a:	6018      	str	r0, [r3, #0]
 8001e2c:	f001 f824 	bl	8002e78 <ConvertFloatTwoBytes>
 8001e30:	0032      	movs	r2, r6
 8001e32:	0031      	movs	r1, r6
 8001e34:	2007      	movs	r0, #7
 8001e36:	f001 f843 	bl	8002ec0 <SendMessage>
 8001e3a:	e780      	b.n	8001d3e <main+0x7d2>
 8001e3c:	f000 f83c 	bl	8001eb8 <MC_GetControlModeMotor1>
 8001e40:	4903      	ldr	r1, [pc, #12]	@ (8001e50 <main+0x8e4>)
 8001e42:	4b05      	ldr	r3, [pc, #20]	@ (8001e58 <main+0x8ec>)
 8001e44:	7008      	strb	r0, [r1, #0]
 8001e46:	7018      	strb	r0, [r3, #0]
 8001e48:	000a      	movs	r2, r1
 8001e4a:	2008      	movs	r0, #8
 8001e4c:	e7f3      	b.n	8001e36 <main+0x8ca>
 8001e4e:	46c0      	nop			@ (mov r8, r8)
 8001e50:	20000588 	.word	0x20000588
 8001e54:	20000594 	.word	0x20000594
 8001e58:	2000058c 	.word	0x2000058c

08001e5c <MC_StartMotor1>:
 8001e5c:	b510      	push	{r4, lr}
 8001e5e:	4b02      	ldr	r3, [pc, #8]	@ (8001e68 <MC_StartMotor1+0xc>)
 8001e60:	6818      	ldr	r0, [r3, #0]
 8001e62:	f000 f89d 	bl	8001fa0 <MCI_StartMotor>
 8001e66:	bd10      	pop	{r4, pc}
 8001e68:	200006a0 	.word	0x200006a0

08001e6c <MC_StopMotor1>:
 8001e6c:	b510      	push	{r4, lr}
 8001e6e:	4b02      	ldr	r3, [pc, #8]	@ (8001e78 <MC_StopMotor1+0xc>)
 8001e70:	6818      	ldr	r0, [r3, #0]
 8001e72:	f000 f8a0 	bl	8001fb6 <MCI_StopMotor>
 8001e76:	bd10      	pop	{r4, pc}
 8001e78:	200006a0 	.word	0x200006a0

08001e7c <MC_ProgramSpeedRampMotor1>:
 8001e7c:	b510      	push	{r4, lr}
 8001e7e:	4b03      	ldr	r3, [pc, #12]	@ (8001e8c <MC_ProgramSpeedRampMotor1+0x10>)
 8001e80:	000a      	movs	r2, r1
 8001e82:	0001      	movs	r1, r0
 8001e84:	6818      	ldr	r0, [r3, #0]
 8001e86:	f000 f84b 	bl	8001f20 <MCI_ExecSpeedRamp>
 8001e8a:	bd10      	pop	{r4, pc}
 8001e8c:	200006a0 	.word	0x200006a0

08001e90 <MC_ProgramTorqueRampMotor1>:
 8001e90:	b510      	push	{r4, lr}
 8001e92:	4b03      	ldr	r3, [pc, #12]	@ (8001ea0 <MC_ProgramTorqueRampMotor1+0x10>)
 8001e94:	000a      	movs	r2, r1
 8001e96:	0001      	movs	r1, r0
 8001e98:	6818      	ldr	r0, [r3, #0]
 8001e9a:	f000 f849 	bl	8001f30 <MCI_ExecTorqueRamp>
 8001e9e:	bd10      	pop	{r4, pc}
 8001ea0:	200006a0 	.word	0x200006a0

08001ea4 <MC_ProgramPositionCommandMotor1>:
 8001ea4:	b510      	push	{r4, lr}
 8001ea6:	4b03      	ldr	r3, [pc, #12]	@ (8001eb4 <MC_ProgramPositionCommandMotor1+0x10>)
 8001ea8:	1c0a      	adds	r2, r1, #0
 8001eaa:	1c01      	adds	r1, r0, #0
 8001eac:	6818      	ldr	r0, [r3, #0]
 8001eae:	f000 f847 	bl	8001f40 <MCI_ExecPositionCommand>
 8001eb2:	bd10      	pop	{r4, pc}
 8001eb4:	200006a0 	.word	0x200006a0

08001eb8 <MC_GetControlModeMotor1>:
 8001eb8:	b510      	push	{r4, lr}
 8001eba:	4b02      	ldr	r3, [pc, #8]	@ (8001ec4 <MC_GetControlModeMotor1+0xc>)
 8001ebc:	6818      	ldr	r0, [r3, #0]
 8001ebe:	f000 f8cb 	bl	8002058 <MCI_GetControlMode>
 8001ec2:	bd10      	pop	{r4, pc}
 8001ec4:	200006a0 	.word	0x200006a0

08001ec8 <MC_AcknowledgeFaultMotor1>:
 8001ec8:	b510      	push	{r4, lr}
 8001eca:	4b02      	ldr	r3, [pc, #8]	@ (8001ed4 <MC_AcknowledgeFaultMotor1+0xc>)
 8001ecc:	6818      	ldr	r0, [r3, #0]
 8001ece:	f000 f878 	bl	8001fc2 <MCI_FaultAcknowledged>
 8001ed2:	bd10      	pop	{r4, pc}
 8001ed4:	200006a0 	.word	0x200006a0

08001ed8 <MC_GetOccurredFaultsMotor1>:
 8001ed8:	b510      	push	{r4, lr}
 8001eda:	4b02      	ldr	r3, [pc, #8]	@ (8001ee4 <MC_GetOccurredFaultsMotor1+0xc>)
 8001edc:	6818      	ldr	r0, [r3, #0]
 8001ede:	f000 f8b5 	bl	800204c <MCI_GetOccurredFaults>
 8001ee2:	bd10      	pop	{r4, pc}
 8001ee4:	200006a0 	.word	0x200006a0

08001ee8 <MC_GetAlignmentStatusMotor1>:
 8001ee8:	b510      	push	{r4, lr}
 8001eea:	4b02      	ldr	r3, [pc, #8]	@ (8001ef4 <MC_GetAlignmentStatusMotor1+0xc>)
 8001eec:	6818      	ldr	r0, [r3, #0]
 8001eee:	f000 f8a3 	bl	8002038 <MCI_GetAlignmentStatus>
 8001ef2:	bd10      	pop	{r4, pc}
 8001ef4:	200006a0 	.word	0x200006a0

08001ef8 <MC_GetCurrentPosition1>:
 8001ef8:	b510      	push	{r4, lr}
 8001efa:	4b02      	ldr	r3, [pc, #8]	@ (8001f04 <MC_GetCurrentPosition1+0xc>)
 8001efc:	6818      	ldr	r0, [r3, #0]
 8001efe:	f000 f8a0 	bl	8002042 <MCI_GetCurrentPosition>
 8001f02:	bd10      	pop	{r4, pc}
 8001f04:	200006a0 	.word	0x200006a0

08001f08 <MCI_Init>:
 8001f08:	6083      	str	r3, [r0, #8]
 8001f0a:	9b00      	ldr	r3, [sp, #0]
 8001f0c:	6001      	str	r1, [r0, #0]
 8001f0e:	60c3      	str	r3, [r0, #12]
 8001f10:	2300      	movs	r3, #0
 8001f12:	6042      	str	r2, [r0, #4]
 8001f14:	7403      	strb	r3, [r0, #16]
 8001f16:	8243      	strh	r3, [r0, #18]
 8001f18:	8283      	strh	r3, [r0, #20]
 8001f1a:	8343      	strh	r3, [r0, #26]
 8001f1c:	7703      	strb	r3, [r0, #28]
 8001f1e:	4770      	bx	lr

08001f20 <MCI_ExecSpeedRamp>:
 8001f20:	2301      	movs	r3, #1
 8001f22:	7403      	strb	r3, [r0, #16]
 8001f24:	2302      	movs	r3, #2
 8001f26:	33ff      	adds	r3, #255	@ 0xff
 8001f28:	8241      	strh	r1, [r0, #18]
 8001f2a:	8342      	strh	r2, [r0, #26]
 8001f2c:	8383      	strh	r3, [r0, #28]
 8001f2e:	4770      	bx	lr

08001f30 <MCI_ExecTorqueRamp>:
 8001f30:	2302      	movs	r3, #2
 8001f32:	7403      	strb	r3, [r0, #16]
 8001f34:	3b01      	subs	r3, #1
 8001f36:	8281      	strh	r1, [r0, #20]
 8001f38:	8342      	strh	r2, [r0, #26]
 8001f3a:	8383      	strh	r3, [r0, #28]
 8001f3c:	4770      	bx	lr
	...

08001f40 <MCI_ExecPositionCommand>:
 8001f40:	b5f8      	push	{r3, r4, r5, r6, r7, lr}
 8001f42:	1c17      	adds	r7, r2, #0
 8001f44:	2200      	movs	r2, #0
 8001f46:	6883      	ldr	r3, [r0, #8]
 8001f48:	0004      	movs	r4, r0
 8001f4a:	3305      	adds	r3, #5
 8001f4c:	77da      	strb	r2, [r3, #31]
 8001f4e:	6840      	ldr	r0, [r0, #4]
 8001f50:	1c0d      	adds	r5, r1, #0
 8001f52:	f002 fb3f 	bl	80045d4 <STC_GetSpeedSensor>
 8001f56:	f002 faf2 	bl	800453e <SPD_GetMecAngle>
 8001f5a:	2100      	movs	r1, #0
 8001f5c:	0006      	movs	r6, r0
 8001f5e:	1c38      	adds	r0, r7, #0
 8001f60:	f7fe fa82 	bl	8000468 <__aeabi_fcmpgt>
 8001f64:	2800      	cmp	r0, #0
 8001f66:	d013      	beq.n	8001f90 <MCI_ExecPositionCommand+0x50>
 8001f68:	0030      	movs	r0, r6
 8001f6a:	f7ff f903 	bl	8001174 <__aeabi_i2f>
 8001f6e:	490b      	ldr	r1, [pc, #44]	@ (8001f9c <MCI_ExecPositionCommand+0x5c>)
 8001f70:	f7fe fc18 	bl	80007a4 <__aeabi_fdiv>
 8001f74:	1c01      	adds	r1, r0, #0
 8001f76:	1c06      	adds	r6, r0, #0
 8001f78:	1c28      	adds	r0, r5, #0
 8001f7a:	f7fe ff37 	bl	8000dec <__aeabi_fsub>
 8001f7e:	1c3b      	adds	r3, r7, #0
 8001f80:	1c02      	adds	r2, r0, #0
 8001f82:	1c31      	adds	r1, r6, #0
 8001f84:	68e0      	ldr	r0, [r4, #12]
 8001f86:	f002 fc79 	bl	800487c <TC_MoveCommand>
 8001f8a:	2300      	movs	r3, #0
 8001f8c:	7763      	strb	r3, [r4, #29]
 8001f8e:	bdf8      	pop	{r3, r4, r5, r6, r7, pc}
 8001f90:	68e0      	ldr	r0, [r4, #12]
 8001f92:	1c29      	adds	r1, r5, #0
 8001f94:	f002 fcfa 	bl	800498c <TC_FollowCommand>
 8001f98:	e7f7      	b.n	8001f8a <MCI_ExecPositionCommand+0x4a>
 8001f9a:	46c0      	nop			@ (mov r8, r8)
 8001f9c:	4622f983 	.word	0x4622f983

08001fa0 <MCI_StartMotor>:
 8001fa0:	b510      	push	{r4, lr}
 8001fa2:	2103      	movs	r1, #3
 8001fa4:	0004      	movs	r4, r0
 8001fa6:	6800      	ldr	r0, [r0, #0]
 8001fa8:	f002 fbc4 	bl	8004734 <STM_NextState>
 8001fac:	2800      	cmp	r0, #0
 8001fae:	d001      	beq.n	8001fb4 <MCI_StartMotor+0x14>
 8001fb0:	2301      	movs	r3, #1
 8001fb2:	7723      	strb	r3, [r4, #28]
 8001fb4:	bd10      	pop	{r4, pc}

08001fb6 <MCI_StopMotor>:
 8001fb6:	b510      	push	{r4, lr}
 8001fb8:	2107      	movs	r1, #7
 8001fba:	6800      	ldr	r0, [r0, #0]
 8001fbc:	f002 fbba 	bl	8004734 <STM_NextState>
 8001fc0:	bd10      	pop	{r4, pc}

08001fc2 <MCI_FaultAcknowledged>:
 8001fc2:	b510      	push	{r4, lr}
 8001fc4:	6800      	ldr	r0, [r0, #0]
 8001fc6:	f002 fc2b 	bl	8004820 <STM_FaultAcknowledged>
 8001fca:	bd10      	pop	{r4, pc}

08001fcc <MCI_ExecBufferedCommands>:
 8001fcc:	b510      	push	{r4, lr}
 8001fce:	1e04      	subs	r4, r0, #0
 8001fd0:	d01a      	beq.n	8002008 <MCI_ExecBufferedCommands+0x3c>
 8001fd2:	7f03      	ldrb	r3, [r0, #28]
 8001fd4:	2b01      	cmp	r3, #1
 8001fd6:	d117      	bne.n	8002008 <MCI_ExecBufferedCommands+0x3c>
 8001fd8:	7c01      	ldrb	r1, [r0, #16]
 8001fda:	2902      	cmp	r1, #2
 8001fdc:	d015      	beq.n	800200a <MCI_ExecBufferedCommands+0x3e>
 8001fde:	2903      	cmp	r1, #3
 8001fe0:	d01e      	beq.n	8002020 <MCI_ExecBufferedCommands+0x54>
 8001fe2:	2901      	cmp	r1, #1
 8001fe4:	d126      	bne.n	8002034 <MCI_ExecBufferedCommands+0x68>
 8001fe6:	2200      	movs	r2, #0
 8001fe8:	6883      	ldr	r3, [r0, #8]
 8001fea:	3305      	adds	r3, #5
 8001fec:	77da      	strb	r2, [r3, #31]
 8001fee:	6840      	ldr	r0, [r0, #4]
 8001ff0:	f002 fb01 	bl	80045f6 <STC_SetControlMode>
 8001ff4:	8b62      	ldrh	r2, [r4, #26]
 8001ff6:	2312      	movs	r3, #18
 8001ff8:	5ee1      	ldrsh	r1, [r4, r3]
 8001ffa:	6860      	ldr	r0, [r4, #4]
 8001ffc:	f002 faff 	bl	80045fe <STC_ExecRamp>
 8002000:	2800      	cmp	r0, #0
 8002002:	d017      	beq.n	8002034 <MCI_ExecBufferedCommands+0x68>
 8002004:	2302      	movs	r3, #2
 8002006:	7723      	strb	r3, [r4, #28]
 8002008:	bd10      	pop	{r4, pc}
 800200a:	2100      	movs	r1, #0
 800200c:	6883      	ldr	r3, [r0, #8]
 800200e:	3305      	adds	r3, #5
 8002010:	77d9      	strb	r1, [r3, #31]
 8002012:	6840      	ldr	r0, [r0, #4]
 8002014:	f002 faef 	bl	80045f6 <STC_SetControlMode>
 8002018:	8b62      	ldrh	r2, [r4, #26]
 800201a:	2314      	movs	r3, #20
 800201c:	5ee1      	ldrsh	r1, [r4, r3]
 800201e:	e7ec      	b.n	8001ffa <MCI_ExecBufferedCommands+0x2e>
 8002020:	0021      	movs	r1, r4
 8002022:	6880      	ldr	r0, [r0, #8]
 8002024:	3116      	adds	r1, #22
 8002026:	1d42      	adds	r2, r0, #5
 8002028:	77d3      	strb	r3, [r2, #31]
 800202a:	3010      	adds	r0, #16
 800202c:	2204      	movs	r2, #4
 800202e:	f002 ff77 	bl	8004f20 <memcpy>
 8002032:	e7e7      	b.n	8002004 <MCI_ExecBufferedCommands+0x38>
 8002034:	2303      	movs	r3, #3
 8002036:	e7e6      	b.n	8002006 <MCI_ExecBufferedCommands+0x3a>

08002038 <MCI_GetAlignmentStatus>:
 8002038:	b510      	push	{r4, lr}
 800203a:	68c0      	ldr	r0, [r0, #12]
 800203c:	f002 fe08 	bl	8004c50 <TC_GetAlignmentStatus>
 8002040:	bd10      	pop	{r4, pc}

08002042 <MCI_GetCurrentPosition>:
 8002042:	b510      	push	{r4, lr}
 8002044:	68c0      	ldr	r0, [r0, #12]
 8002046:	f002 fdf5 	bl	8004c34 <TC_GetCurrentPosition>
 800204a:	bd10      	pop	{r4, pc}

0800204c <MCI_GetOccurredFaults>:
 800204c:	b510      	push	{r4, lr}
 800204e:	6800      	ldr	r0, [r0, #0]
 8002050:	f002 fbf0 	bl	8004834 <STM_GetFaultState>
 8002054:	b280      	uxth	r0, r0
 8002056:	bd10      	pop	{r4, pc}

08002058 <MCI_GetControlMode>:
 8002058:	7f40      	ldrb	r0, [r0, #29]
 800205a:	4770      	bx	lr

0800205c <MCM_Clarke>:
 800205c:	b51f      	push	{r0, r1, r2, r3, r4, lr}
 800205e:	2280      	movs	r2, #128	@ 0x80
 8002060:	1403      	asrs	r3, r0, #16
 8002062:	b201      	sxth	r1, r0
 8002064:	480e      	ldr	r0, [pc, #56]	@ (80020a0 <MCM_Clarke+0x44>)
 8002066:	0212      	lsls	r2, r2, #8
 8002068:	4358      	muls	r0, r3
 800206a:	4b0e      	ldr	r3, [pc, #56]	@ (80020a4 <MCM_Clarke+0x48>)
 800206c:	434b      	muls	r3, r1
 800206e:	1a1b      	subs	r3, r3, r0
 8002070:	1a1b      	subs	r3, r3, r0
 8002072:	13db      	asrs	r3, r3, #15
 8002074:	4293      	cmp	r3, r2
 8002076:	da10      	bge.n	800209a <MCM_Clarke+0x3e>
 8002078:	480b      	ldr	r0, [pc, #44]	@ (80020a8 <MCM_Clarke+0x4c>)
 800207a:	0002      	movs	r2, r0
 800207c:	4283      	cmp	r3, r0
 800207e:	db00      	blt.n	8002082 <MCM_Clarke+0x26>
 8002080:	b21a      	sxth	r2, r3
 8002082:	4b0a      	ldr	r3, [pc, #40]	@ (80020ac <MCM_Clarke+0x50>)
 8002084:	ac03      	add	r4, sp, #12
 8002086:	8021      	strh	r1, [r4, #0]
 8002088:	1c10      	adds	r0, r2, #0
 800208a:	429a      	cmp	r2, r3
 800208c:	da00      	bge.n	8002090 <MCM_Clarke+0x34>
 800208e:	1c18      	adds	r0, r3, #0
 8002090:	0403      	lsls	r3, r0, #16
 8002092:	8820      	ldrh	r0, [r4, #0]
 8002094:	4318      	orrs	r0, r3
 8002096:	b004      	add	sp, #16
 8002098:	bd10      	pop	{r4, pc}
 800209a:	4a05      	ldr	r2, [pc, #20]	@ (80020b0 <MCM_Clarke+0x54>)
 800209c:	e7f1      	b.n	8002082 <MCM_Clarke+0x26>
 800209e:	46c0      	nop			@ (mov r8, r8)
 80020a0:	000049e6 	.word	0x000049e6
 80020a4:	ffffb61a 	.word	0xffffb61a
 80020a8:	ffff8000 	.word	0xffff8000
 80020ac:	ffff8001 	.word	0xffff8001
 80020b0:	00007fff 	.word	0x00007fff

080020b4 <MCM_Trig_Functions>:
 80020b4:	2380      	movs	r3, #128	@ 0x80
 80020b6:	021b      	lsls	r3, r3, #8
 80020b8:	18c3      	adds	r3, r0, r3
 80020ba:	b29b      	uxth	r3, r3
 80020bc:	b537      	push	{r0, r1, r2, r4, r5, lr}
 80020be:	099b      	lsrs	r3, r3, #6
 80020c0:	24c0      	movs	r4, #192	@ 0xc0
 80020c2:	2100      	movs	r1, #0
 80020c4:	0018      	movs	r0, r3
 80020c6:	2580      	movs	r5, #128	@ 0x80
 80020c8:	00a4      	lsls	r4, r4, #2
 80020ca:	000a      	movs	r2, r1
 80020cc:	4020      	ands	r0, r4
 80020ce:	00ad      	lsls	r5, r5, #2
 80020d0:	42a8      	cmp	r0, r5
 80020d2:	d017      	beq.n	8002104 <MCM_Trig_Functions+0x50>
 80020d4:	d809      	bhi.n	80020ea <MCM_Trig_Functions+0x36>
 80020d6:	4288      	cmp	r0, r1
 80020d8:	d01d      	beq.n	8002116 <MCM_Trig_Functions+0x62>
 80020da:	2480      	movs	r4, #128	@ 0x80
 80020dc:	0064      	lsls	r4, r4, #1
 80020de:	42a0      	cmp	r0, r4
 80020e0:	d022      	beq.n	8002128 <MCM_Trig_Functions+0x74>
 80020e2:	0412      	lsls	r2, r2, #16
 80020e4:	b288      	uxth	r0, r1
 80020e6:	4310      	orrs	r0, r2
 80020e8:	bd3e      	pop	{r1, r2, r3, r4, r5, pc}
 80020ea:	42a0      	cmp	r0, r4
 80020ec:	d1f9      	bne.n	80020e2 <MCM_Trig_Functions+0x2e>
 80020ee:	b2db      	uxtb	r3, r3
 80020f0:	43da      	mvns	r2, r3
 80020f2:	4912      	ldr	r1, [pc, #72]	@ (800213c <MCM_Trig_Functions+0x88>)
 80020f4:	b2d2      	uxtb	r2, r2
 80020f6:	0052      	lsls	r2, r2, #1
 80020f8:	5e52      	ldrsh	r2, [r2, r1]
 80020fa:	005b      	lsls	r3, r3, #1
 80020fc:	5a59      	ldrh	r1, [r3, r1]
 80020fe:	4249      	negs	r1, r1
 8002100:	b209      	sxth	r1, r1
 8002102:	e7ee      	b.n	80020e2 <MCM_Trig_Functions+0x2e>
 8002104:	b2db      	uxtb	r3, r3
 8002106:	005a      	lsls	r2, r3, #1
 8002108:	43db      	mvns	r3, r3
 800210a:	490c      	ldr	r1, [pc, #48]	@ (800213c <MCM_Trig_Functions+0x88>)
 800210c:	b2db      	uxtb	r3, r3
 800210e:	5e52      	ldrsh	r2, [r2, r1]
 8002110:	005b      	lsls	r3, r3, #1
 8002112:	5e59      	ldrsh	r1, [r3, r1]
 8002114:	e7e5      	b.n	80020e2 <MCM_Trig_Functions+0x2e>
 8002116:	b2db      	uxtb	r3, r3
 8002118:	005a      	lsls	r2, r3, #1
 800211a:	43db      	mvns	r3, r3
 800211c:	4907      	ldr	r1, [pc, #28]	@ (800213c <MCM_Trig_Functions+0x88>)
 800211e:	b2db      	uxtb	r3, r3
 8002120:	5a52      	ldrh	r2, [r2, r1]
 8002122:	4252      	negs	r2, r2
 8002124:	b212      	sxth	r2, r2
 8002126:	e7e8      	b.n	80020fa <MCM_Trig_Functions+0x46>
 8002128:	b2db      	uxtb	r3, r3
 800212a:	43da      	mvns	r2, r3
 800212c:	4903      	ldr	r1, [pc, #12]	@ (800213c <MCM_Trig_Functions+0x88>)
 800212e:	b2d2      	uxtb	r2, r2
 8002130:	0052      	lsls	r2, r2, #1
 8002132:	5a52      	ldrh	r2, [r2, r1]
 8002134:	4252      	negs	r2, r2
 8002136:	b212      	sxth	r2, r2
 8002138:	e7ea      	b.n	8002110 <MCM_Trig_Functions+0x5c>
 800213a:	46c0      	nop			@ (mov r8, r8)
 800213c:	08004fd8 	.word	0x08004fd8

08002140 <MCM_Park>:
 8002140:	b57f      	push	{r0, r1, r2, r3, r4, r5, r6, lr}
 8002142:	b205      	sxth	r5, r0
 8002144:	1404      	asrs	r4, r0, #16
 8002146:	0008      	movs	r0, r1
 8002148:	f7ff ffb4 	bl	80020b4 <MCM_Trig_Functions>
 800214c:	b202      	sxth	r2, r0
 800214e:	1400      	asrs	r0, r0, #16
 8002150:	0013      	movs	r3, r2
 8002152:	0001      	movs	r1, r0
 8002154:	436b      	muls	r3, r5
 8002156:	4361      	muls	r1, r4
 8002158:	1a5b      	subs	r3, r3, r1
 800215a:	2180      	movs	r1, #128	@ 0x80
 800215c:	13db      	asrs	r3, r3, #15
 800215e:	0209      	lsls	r1, r1, #8
 8002160:	428b      	cmp	r3, r1
 8002162:	da23      	bge.n	80021ac <MCM_Park+0x6c>
 8002164:	4913      	ldr	r1, [pc, #76]	@ (80021b4 <MCM_Park+0x74>)
 8002166:	000e      	movs	r6, r1
 8002168:	428b      	cmp	r3, r1
 800216a:	db00      	blt.n	800216e <MCM_Park+0x2e>
 800216c:	b21e      	sxth	r6, r3
 800216e:	4b12      	ldr	r3, [pc, #72]	@ (80021b8 <MCM_Park+0x78>)
 8002170:	1c31      	adds	r1, r6, #0
 8002172:	429e      	cmp	r6, r3
 8002174:	da00      	bge.n	8002178 <MCM_Park+0x38>
 8002176:	1c19      	adds	r1, r3, #0
 8002178:	4354      	muls	r4, r2
 800217a:	2280      	movs	r2, #128	@ 0x80
 800217c:	4368      	muls	r0, r5
 800217e:	1900      	adds	r0, r0, r4
 8002180:	b209      	sxth	r1, r1
 8002182:	13c0      	asrs	r0, r0, #15
 8002184:	0212      	lsls	r2, r2, #8
 8002186:	4290      	cmp	r0, r2
 8002188:	da12      	bge.n	80021b0 <MCM_Park+0x70>
 800218a:	4c0a      	ldr	r4, [pc, #40]	@ (80021b4 <MCM_Park+0x74>)
 800218c:	0022      	movs	r2, r4
 800218e:	42a0      	cmp	r0, r4
 8002190:	db00      	blt.n	8002194 <MCM_Park+0x54>
 8002192:	b202      	sxth	r2, r0
 8002194:	ac03      	add	r4, sp, #12
 8002196:	8021      	strh	r1, [r4, #0]
 8002198:	1c10      	adds	r0, r2, #0
 800219a:	429a      	cmp	r2, r3
 800219c:	da01      	bge.n	80021a2 <MCM_Park+0x62>
 800219e:	4b07      	ldr	r3, [pc, #28]	@ (80021bc <MCM_Park+0x7c>)
 80021a0:	8818      	ldrh	r0, [r3, #0]
 80021a2:	0403      	lsls	r3, r0, #16
 80021a4:	8820      	ldrh	r0, [r4, #0]
 80021a6:	4318      	orrs	r0, r3
 80021a8:	b004      	add	sp, #16
 80021aa:	bd70      	pop	{r4, r5, r6, pc}
 80021ac:	4e04      	ldr	r6, [pc, #16]	@ (80021c0 <MCM_Park+0x80>)
 80021ae:	e7de      	b.n	800216e <MCM_Park+0x2e>
 80021b0:	4a03      	ldr	r2, [pc, #12]	@ (80021c0 <MCM_Park+0x80>)
 80021b2:	e7ef      	b.n	8002194 <MCM_Park+0x54>
 80021b4:	ffff8000 	.word	0xffff8000
 80021b8:	ffff8001 	.word	0xffff8001
 80021bc:	08004fd6 	.word	0x08004fd6
 80021c0:	00007fff 	.word	0x00007fff

080021c4 <MCM_Rev_Park>:
 80021c4:	b530      	push	{r4, r5, lr}
 80021c6:	b205      	sxth	r5, r0
 80021c8:	b085      	sub	sp, #20
 80021ca:	1404      	asrs	r4, r0, #16
 80021cc:	0008      	movs	r0, r1
 80021ce:	f7ff ff71 	bl	80020b4 <MCM_Trig_Functions>
 80021d2:	b202      	sxth	r2, r0
 80021d4:	1403      	asrs	r3, r0, #16
 80021d6:	0019      	movs	r1, r3
 80021d8:	0010      	movs	r0, r2
 80021da:	4361      	muls	r1, r4
 80021dc:	4368      	muls	r0, r5
 80021de:	4354      	muls	r4, r2
 80021e0:	436b      	muls	r3, r5
 80021e2:	1840      	adds	r0, r0, r1
 80021e4:	1ae4      	subs	r4, r4, r3
 80021e6:	13c0      	asrs	r0, r0, #15
 80021e8:	13e4      	asrs	r4, r4, #15
 80021ea:	0424      	lsls	r4, r4, #16
 80021ec:	b280      	uxth	r0, r0
 80021ee:	4320      	orrs	r0, r4
 80021f0:	b005      	add	sp, #20
 80021f2:	bd30      	pop	{r4, r5, pc}

080021f4 <LL_GPIO_LockPin>:
 80021f4:	2380      	movs	r3, #128	@ 0x80
 80021f6:	025b      	lsls	r3, r3, #9
 80021f8:	430b      	orrs	r3, r1
 80021fa:	61c3      	str	r3, [r0, #28]
 80021fc:	61c1      	str	r1, [r0, #28]
 80021fe:	61c3      	str	r3, [r0, #28]
 8002200:	69c3      	ldr	r3, [r0, #28]
 8002202:	b082      	sub	sp, #8
 8002204:	9301      	str	r3, [sp, #4]
 8002206:	9b01      	ldr	r3, [sp, #4]
 8002208:	b002      	add	sp, #8
 800220a:	4770      	bx	lr

0800220c <FOC_Clear>:
 800220c:	2226      	movs	r2, #38	@ 0x26
 800220e:	b570      	push	{r4, r5, r6, lr}
 8002210:	2400      	movs	r4, #0
 8002212:	4342      	muls	r2, r0
 8002214:	4b11      	ldr	r3, [pc, #68]	@ (800225c <FOC_Clear+0x50>)
 8002216:	0085      	lsls	r5, r0, #2
 8002218:	52d4      	strh	r4, [r2, r3]
 800221a:	189b      	adds	r3, r3, r2
 800221c:	805c      	strh	r4, [r3, #2]
 800221e:	809c      	strh	r4, [r3, #4]
 8002220:	80dc      	strh	r4, [r3, #6]
 8002222:	819c      	strh	r4, [r3, #12]
 8002224:	81dc      	strh	r4, [r3, #14]
 8002226:	821c      	strh	r4, [r3, #16]
 8002228:	825c      	strh	r4, [r3, #18]
 800222a:	83dc      	strh	r4, [r3, #30]
 800222c:	82dc      	strh	r4, [r3, #22]
 800222e:	831c      	strh	r4, [r3, #24]
 8002230:	835c      	strh	r4, [r3, #26]
 8002232:	839c      	strh	r4, [r3, #28]
 8002234:	841c      	strh	r4, [r3, #32]
 8002236:	4b0a      	ldr	r3, [pc, #40]	@ (8002260 <FOC_Clear+0x54>)
 8002238:	0021      	movs	r1, r4
 800223a:	58e8      	ldr	r0, [r5, r3]
 800223c:	f001 fbe6 	bl	8003a0c <PID_SetIntegralTerm>
 8002240:	4b08      	ldr	r3, [pc, #32]	@ (8002264 <FOC_Clear+0x58>)
 8002242:	0021      	movs	r1, r4
 8002244:	58e8      	ldr	r0, [r5, r3]
 8002246:	f001 fbe1 	bl	8003a0c <PID_SetIntegralTerm>
 800224a:	4b07      	ldr	r3, [pc, #28]	@ (8002268 <FOC_Clear+0x5c>)
 800224c:	58e8      	ldr	r0, [r5, r3]
 800224e:	f002 f9c3 	bl	80045d8 <STC_Clear>
 8002252:	4b06      	ldr	r3, [pc, #24]	@ (800226c <FOC_Clear+0x60>)
 8002254:	58e8      	ldr	r0, [r5, r3]
 8002256:	f001 fd67 	bl	8003d28 <PWMC_SwitchOffPWM>
 800225a:	bd70      	pop	{r4, r5, r6, pc}
 800225c:	20000674 	.word	0x20000674
 8002260:	200005e8 	.word	0x200005e8
 8002264:	200005e4 	.word	0x200005e4
 8002268:	200005f0 	.word	0x200005f0
 800226c:	200005cc 	.word	0x200005cc

08002270 <MCboot>:
 8002270:	b5f0      	push	{r4, r5, r6, r7, lr}
 8002272:	2700      	movs	r7, #0
 8002274:	4b63      	ldr	r3, [pc, #396]	@ (8002404 <MCboot+0x194>)
 8002276:	b093      	sub	sp, #76	@ 0x4c
 8002278:	900e      	str	r0, [sp, #56]	@ 0x38
 800227a:	0018      	movs	r0, r3
 800227c:	910f      	str	r1, [sp, #60]	@ 0x3c
 800227e:	9304      	str	r3, [sp, #16]
 8002280:	f002 fa3a 	bl	80046f8 <STM_Init>
 8002284:	4b60      	ldr	r3, [pc, #384]	@ (8002408 <MCboot+0x198>)
 8002286:	4a61      	ldr	r2, [pc, #388]	@ (800240c <MCboot+0x19c>)
 8002288:	701f      	strb	r7, [r3, #0]
 800228a:	9308      	str	r3, [sp, #32]
 800228c:	4b60      	ldr	r3, [pc, #384]	@ (8002410 <MCboot+0x1a0>)
 800228e:	4861      	ldr	r0, [pc, #388]	@ (8002414 <MCboot+0x1a4>)
 8002290:	601a      	str	r2, [r3, #0]
 8002292:	4b61      	ldr	r3, [pc, #388]	@ (8002418 <MCboot+0x1a8>)
 8002294:	9309      	str	r3, [sp, #36]	@ 0x24
 8002296:	6018      	str	r0, [r3, #0]
 8002298:	f001 fe36 	bl	8003f08 <R3_1_Init>
 800229c:	4c5f      	ldr	r4, [pc, #380]	@ (800241c <MCboot+0x1ac>)
 800229e:	0020      	movs	r0, r4
 80022a0:	f001 fbac 	bl	80039fc <PID_HandleInit>
 80022a4:	4b5e      	ldr	r3, [pc, #376]	@ (8002420 <MCboot+0x1b0>)
 80022a6:	9305      	str	r3, [sp, #20]
 80022a8:	601c      	str	r4, [r3, #0]
 80022aa:	4c5e      	ldr	r4, [pc, #376]	@ (8002424 <MCboot+0x1b4>)
 80022ac:	4b5e      	ldr	r3, [pc, #376]	@ (8002428 <MCboot+0x1b8>)
 80022ae:	9307      	str	r3, [sp, #28]
 80022b0:	6023      	str	r3, [r4, #0]
 80022b2:	4b5e      	ldr	r3, [pc, #376]	@ (800242c <MCboot+0x1bc>)
 80022b4:	0018      	movs	r0, r3
 80022b6:	9303      	str	r3, [sp, #12]
 80022b8:	f001 fa40 	bl	800373c <ENC_Init>
 80022bc:	4d5c      	ldr	r5, [pc, #368]	@ (8002430 <MCboot+0x1c0>)
 80022be:	4e5d      	ldr	r6, [pc, #372]	@ (8002434 <MCboot+0x1c4>)
 80022c0:	002a      	movs	r2, r5
 80022c2:	6821      	ldr	r1, [r4, #0]
 80022c4:	0030      	movs	r0, r6
 80022c6:	9b03      	ldr	r3, [sp, #12]
 80022c8:	f001 f9ef 	bl	80036aa <EAC_Init>
 80022cc:	4b5a      	ldr	r3, [pc, #360]	@ (8002438 <MCboot+0x1c8>)
 80022ce:	485b      	ldr	r0, [pc, #364]	@ (800243c <MCboot+0x1cc>)
 80022d0:	601e      	str	r6, [r3, #0]
 80022d2:	4e5b      	ldr	r6, [pc, #364]	@ (8002440 <MCboot+0x1d0>)
 80022d4:	6030      	str	r0, [r6, #0]
 80022d6:	f001 fb91 	bl	80039fc <PID_HandleInit>
 80022da:	4b5a      	ldr	r3, [pc, #360]	@ (8002444 <MCboot+0x1d4>)
 80022dc:	485a      	ldr	r0, [pc, #360]	@ (8002448 <MCboot+0x1d8>)
 80022de:	9a07      	ldr	r2, [sp, #28]
 80022e0:	6831      	ldr	r1, [r6, #0]
 80022e2:	9306      	str	r3, [sp, #24]
 80022e4:	6018      	str	r0, [r3, #0]
 80022e6:	9b03      	ldr	r3, [sp, #12]
 80022e8:	f002 faa9 	bl	800483e <TC_Init>
 80022ec:	9b05      	ldr	r3, [sp, #20]
 80022ee:	9a03      	ldr	r2, [sp, #12]
 80022f0:	6819      	ldr	r1, [r3, #0]
 80022f2:	6820      	ldr	r0, [r4, #0]
 80022f4:	f002 f959 	bl	80045aa <STC_Init>
 80022f8:	0028      	movs	r0, r5
 80022fa:	f002 fccc 	bl	8004c96 <VSS_Init>
 80022fe:	4e53      	ldr	r6, [pc, #332]	@ (800244c <MCboot+0x1dc>)
 8002300:	0030      	movs	r0, r6
 8002302:	f001 fb7b 	bl	80039fc <PID_HandleInit>
 8002306:	4d52      	ldr	r5, [pc, #328]	@ (8002450 <MCboot+0x1e0>)
 8002308:	0028      	movs	r0, r5
 800230a:	f001 fb77 	bl	80039fc <PID_HandleInit>
 800230e:	4b51      	ldr	r3, [pc, #324]	@ (8002454 <MCboot+0x1e4>)
 8002310:	4851      	ldr	r0, [pc, #324]	@ (8002458 <MCboot+0x1e8>)
 8002312:	601e      	str	r6, [r3, #0]
 8002314:	930a      	str	r3, [sp, #40]	@ 0x28
 8002316:	4b51      	ldr	r3, [pc, #324]	@ (800245c <MCboot+0x1ec>)
 8002318:	601d      	str	r5, [r3, #0]
 800231a:	930b      	str	r3, [sp, #44]	@ 0x2c
 800231c:	4b50      	ldr	r3, [pc, #320]	@ (8002460 <MCboot+0x1f0>)
 800231e:	9307      	str	r3, [sp, #28]
 8002320:	6018      	str	r0, [r3, #0]
 8002322:	f002 f8b6 	bl	8004492 <RVBS_Init>
 8002326:	4a4f      	ldr	r2, [pc, #316]	@ (8002464 <MCboot+0x1f4>)
 8002328:	4b4f      	ldr	r3, [pc, #316]	@ (8002468 <MCboot+0x1f8>)
 800232a:	920c      	str	r2, [sp, #48]	@ 0x30
 800232c:	6013      	str	r3, [r2, #0]
 800232e:	9a07      	ldr	r2, [sp, #28]
 8002330:	4e4e      	ldr	r6, [pc, #312]	@ (800246c <MCboot+0x1fc>)
 8002332:	4d4f      	ldr	r5, [pc, #316]	@ (8002470 <MCboot+0x200>)
 8002334:	6812      	ldr	r2, [r2, #0]
 8002336:	33fc      	adds	r3, #252	@ 0xfc
 8002338:	0030      	movs	r0, r6
 800233a:	615a      	str	r2, [r3, #20]
 800233c:	611d      	str	r5, [r3, #16]
 800233e:	f001 fb2e 	bl	800399e <NTC_Init>
 8002342:	4b4c      	ldr	r3, [pc, #304]	@ (8002474 <MCboot+0x204>)
 8002344:	484c      	ldr	r0, [pc, #304]	@ (8002478 <MCboot+0x208>)
 8002346:	601e      	str	r6, [r3, #0]
 8002348:	930d      	str	r3, [sp, #52]	@ 0x34
 800234a:	4b4c      	ldr	r3, [pc, #304]	@ (800247c <MCboot+0x20c>)
 800234c:	6018      	str	r0, [r3, #0]
 800234e:	f002 f8e7 	bl	8004520 <REMNG_Init>
 8002352:	0038      	movs	r0, r7
 8002354:	f7ff ff5a 	bl	800220c <FOC_Clear>
 8002358:	2201      	movs	r2, #1
 800235a:	1d6b      	adds	r3, r5, #5
 800235c:	6820      	ldr	r0, [r4, #0]
 800235e:	77da      	strb	r2, [r3, #31]
 8002360:	f002 f9ba 	bl	80046d8 <STC_GetDefaultIqdref>
 8002364:	8228      	strh	r0, [r5, #16]
 8002366:	0c00      	lsrs	r0, r0, #16
 8002368:	8268      	strh	r0, [r5, #18]
 800236a:	6820      	ldr	r0, [r4, #0]
 800236c:	f002 f9b4 	bl	80046d8 <STC_GetDefaultIqdref>
 8002370:	9b06      	ldr	r3, [sp, #24]
 8002372:	0c00      	lsrs	r0, r0, #16
 8002374:	4e42      	ldr	r6, [pc, #264]	@ (8002480 <MCboot+0x210>)
 8002376:	82a8      	strh	r0, [r5, #20]
 8002378:	681b      	ldr	r3, [r3, #0]
 800237a:	4842      	ldr	r0, [pc, #264]	@ (8002484 <MCboot+0x214>)
 800237c:	9904      	ldr	r1, [sp, #16]
 800237e:	6030      	str	r0, [r6, #0]
 8002380:	9300      	str	r3, [sp, #0]
 8002382:	6822      	ldr	r2, [r4, #0]
 8002384:	002b      	movs	r3, r5
 8002386:	f7ff fdbf 	bl	8001f08 <MCI_Init>
 800238a:	6820      	ldr	r0, [r4, #0]
 800238c:	6835      	ldr	r5, [r6, #0]
 800238e:	f002 f9a0 	bl	80046d2 <STC_GetMecSpeedRefUnitDefault>
 8002392:	003a      	movs	r2, r7
 8002394:	0001      	movs	r1, r0
 8002396:	0028      	movs	r0, r5
 8002398:	f7ff fdc2 	bl	8001f20 <MCI_ExecSpeedRamp>
 800239c:	6833      	ldr	r3, [r6, #0]
 800239e:	990e      	ldr	r1, [sp, #56]	@ 0x38
 80023a0:	600b      	str	r3, [r1, #0]
 80023a2:	9905      	ldr	r1, [sp, #20]
 80023a4:	4b38      	ldr	r3, [pc, #224]	@ (8002488 <MCboot+0x218>)
 80023a6:	680a      	ldr	r2, [r1, #0]
 80023a8:	990a      	ldr	r1, [sp, #40]	@ 0x28
 80023aa:	601a      	str	r2, [r3, #0]
 80023ac:	680a      	ldr	r2, [r1, #0]
 80023ae:	990b      	ldr	r1, [sp, #44]	@ 0x2c
 80023b0:	605a      	str	r2, [r3, #4]
 80023b2:	680a      	ldr	r2, [r1, #0]
 80023b4:	9909      	ldr	r1, [sp, #36]	@ 0x24
 80023b6:	609a      	str	r2, [r3, #8]
 80023b8:	680a      	ldr	r2, [r1, #0]
 80023ba:	9903      	ldr	r1, [sp, #12]
 80023bc:	611a      	str	r2, [r3, #16]
 80023be:	6199      	str	r1, [r3, #24]
 80023c0:	9904      	ldr	r1, [sp, #16]
 80023c2:	6822      	ldr	r2, [r4, #0]
 80023c4:	6299      	str	r1, [r3, #40]	@ 0x28
 80023c6:	990d      	ldr	r1, [sp, #52]	@ 0x34
 80023c8:	625a      	str	r2, [r3, #36]	@ 0x24
 80023ca:	680a      	ldr	r2, [r1, #0]
 80023cc:	9907      	ldr	r1, [sp, #28]
 80023ce:	62da      	str	r2, [r3, #44]	@ 0x2c
 80023d0:	680a      	ldr	r2, [r1, #0]
 80023d2:	60df      	str	r7, [r3, #12]
 80023d4:	615f      	str	r7, [r3, #20]
 80023d6:	61df      	str	r7, [r3, #28]
 80023d8:	621f      	str	r7, [r3, #32]
 80023da:	631a      	str	r2, [r3, #48]	@ 0x30
 80023dc:	635f      	str	r7, [r3, #52]	@ 0x34
 80023de:	990c      	ldr	r1, [sp, #48]	@ 0x30
 80023e0:	639f      	str	r7, [r3, #56]	@ 0x38
 80023e2:	680a      	ldr	r2, [r1, #0]
 80023e4:	9906      	ldr	r1, [sp, #24]
 80023e6:	63da      	str	r2, [r3, #60]	@ 0x3c
 80023e8:	680a      	ldr	r2, [r1, #0]
 80023ea:	990f      	ldr	r1, [sp, #60]	@ 0x3c
 80023ec:	649a      	str	r2, [r3, #72]	@ 0x48
 80023ee:	2201      	movs	r2, #1
 80023f0:	641f      	str	r7, [r3, #64]	@ 0x40
 80023f2:	645f      	str	r7, [r3, #68]	@ 0x44
 80023f4:	64df      	str	r7, [r3, #76]	@ 0x4c
 80023f6:	651f      	str	r7, [r3, #80]	@ 0x50
 80023f8:	600b      	str	r3, [r1, #0]
 80023fa:	9b08      	ldr	r3, [sp, #32]
 80023fc:	701a      	strb	r2, [r3, #0]
 80023fe:	b013      	add	sp, #76	@ 0x4c
 8002400:	bdf0      	pop	{r4, r5, r6, r7, pc}
 8002402:	46c0      	nop			@ (mov r8, r8)
 8002404:	200005f4 	.word	0x200005f4
 8002408:	200005b6 	.word	0x200005b6
 800240c:	20000000 	.word	0x20000000
 8002410:	200005c4 	.word	0x200005c4
 8002414:	2000026c 	.word	0x2000026c
 8002418:	200005cc 	.word	0x200005cc
 800241c:	20000410 	.word	0x20000410
 8002420:	200005ec 	.word	0x200005ec
 8002424:	200005f0 	.word	0x200005f0
 8002428:	200002e8 	.word	0x200002e8
 800242c:	20000178 	.word	0x20000178
 8002430:	200001f4 	.word	0x200001f4
 8002434:	2000015c 	.word	0x2000015c
 8002438:	200005e0 	.word	0x200005e0
 800243c:	2000038c 	.word	0x2000038c
 8002440:	200005d4 	.word	0x200005d4
 8002444:	200005d8 	.word	0x200005d8
 8002448:	2000031c 	.word	0x2000031c
 800244c:	200003e4 	.word	0x200003e4
 8002450:	200003b8 	.word	0x200003b8
 8002454:	200005e8 	.word	0x200005e8
 8002458:	2000010c 	.word	0x2000010c
 800245c:	200005e4 	.word	0x200005e4
 8002460:	200005dc 	.word	0x200005dc
 8002464:	200005c8 	.word	0x200005c8
 8002468:	2000043c 	.word	0x2000043c
 800246c:	20000134 	.word	0x20000134
 8002470:	20000674 	.word	0x20000674
 8002474:	200005d0 	.word	0x200005d0
 8002478:	200000b4 	.word	0x200000b4
 800247c:	200005c0 	.word	0x200005c0
 8002480:	20000650 	.word	0x20000650
 8002484:	20000654 	.word	0x20000654
 8002488:	200005fc 	.word	0x200005fc

0800248c <FOC_InitAdditionalMethods>:
 800248c:	4770      	bx	lr
	...

08002490 <FOC_CalcCurrRef>:
 8002490:	2326      	movs	r3, #38	@ 0x26
 8002492:	4343      	muls	r3, r0
 8002494:	b510      	push	{r4, lr}
 8002496:	4c07      	ldr	r4, [pc, #28]	@ (80024b4 <FOC_CalcCurrRef+0x24>)
 8002498:	18e4      	adds	r4, r4, r3
 800249a:	1d63      	adds	r3, r4, #5
 800249c:	7fdb      	ldrb	r3, [r3, #31]
 800249e:	2b00      	cmp	r3, #0
 80024a0:	d106      	bne.n	80024b0 <FOC_CalcCurrRef+0x20>
 80024a2:	4b05      	ldr	r3, [pc, #20]	@ (80024b8 <FOC_CalcCurrRef+0x28>)
 80024a4:	0080      	lsls	r0, r0, #2
 80024a6:	58c0      	ldr	r0, [r0, r3]
 80024a8:	f002 f8e9 	bl	800467e <STC_CalcTorqueReference>
 80024ac:	83e0      	strh	r0, [r4, #30]
 80024ae:	8220      	strh	r0, [r4, #16]
 80024b0:	bd10      	pop	{r4, pc}
 80024b2:	46c0      	nop			@ (mov r8, r8)
 80024b4:	20000674 	.word	0x20000674
 80024b8:	200005f0 	.word	0x200005f0

080024bc <TSK_SetChargeBootCapDelayM1>:
 80024bc:	4b01      	ldr	r3, [pc, #4]	@ (80024c4 <TSK_SetChargeBootCapDelayM1+0x8>)
 80024be:	8018      	strh	r0, [r3, #0]
 80024c0:	4770      	bx	lr
 80024c2:	46c0      	nop			@ (mov r8, r8)
 80024c4:	200005ba 	.word	0x200005ba

080024c8 <TSK_ChargeBootCapDelayHasElapsedM1>:
 80024c8:	4b02      	ldr	r3, [pc, #8]	@ (80024d4 <TSK_ChargeBootCapDelayHasElapsedM1+0xc>)
 80024ca:	8818      	ldrh	r0, [r3, #0]
 80024cc:	4243      	negs	r3, r0
 80024ce:	4158      	adcs	r0, r3
 80024d0:	b2c0      	uxtb	r0, r0
 80024d2:	4770      	bx	lr
 80024d4:	200005ba 	.word	0x200005ba

080024d8 <TSK_SetStopPermanencyTimeM1>:
 80024d8:	4b01      	ldr	r3, [pc, #4]	@ (80024e0 <TSK_SetStopPermanencyTimeM1+0x8>)
 80024da:	8018      	strh	r0, [r3, #0]
 80024dc:	4770      	bx	lr
 80024de:	46c0      	nop			@ (mov r8, r8)
 80024e0:	200005b8 	.word	0x200005b8

080024e4 <TSK_StopPermanencyTimeHasElapsedM1>:
 80024e4:	4b02      	ldr	r3, [pc, #8]	@ (80024f0 <TSK_StopPermanencyTimeHasElapsedM1+0xc>)
 80024e6:	8818      	ldrh	r0, [r3, #0]
 80024e8:	4243      	negs	r3, r0
 80024ea:	4158      	adcs	r0, r3
 80024ec:	b2c0      	uxtb	r0, r0
 80024ee:	4770      	bx	lr
 80024f0:	200005b8 	.word	0x200005b8

080024f4 <TSK_MediumFrequencyTaskM1>:
 80024f4:	b5f7      	push	{r0, r1, r2, r4, r5, r6, r7, lr}
 80024f6:	466b      	mov	r3, sp
 80024f8:	1d99      	adds	r1, r3, #6
 80024fa:	2300      	movs	r3, #0
 80024fc:	4e73      	ldr	r6, [pc, #460]	@ (80026cc <TSK_MediumFrequencyTaskM1+0x1d8>)
 80024fe:	800b      	strh	r3, [r1, #0]
 8002500:	0030      	movs	r0, r6
 8002502:	f001 f979 	bl	80037f8 <ENC_CalcAvrgMecSpeedUnit>
 8002506:	4d72      	ldr	r5, [pc, #456]	@ (80026d0 <TSK_MediumFrequencyTaskM1+0x1dc>)
 8002508:	6828      	ldr	r0, [r5, #0]
 800250a:	f001 fad9 	bl	8003ac0 <PQD_CalcElMotorPower>
 800250e:	4c71      	ldr	r4, [pc, #452]	@ (80026d4 <TSK_MediumFrequencyTaskM1+0x1e0>)
 8002510:	0020      	movs	r0, r4
 8002512:	f002 f983 	bl	800481c <STM_GetState>
 8002516:	2812      	cmp	r0, #18
 8002518:	d842      	bhi.n	80025a0 <TSK_MediumFrequencyTaskM1+0xac>
 800251a:	f7fd fdff 	bl	800011c <__gnu_thumb1_case_uqi>
 800251e:	530a      	.short	0x530a
 8002520:	9e7d1983 	.word	0x9e7d1983
 8002524:	d4cdbdb1 	.word	0xd4cdbdb1
 8002528:	5c414141 	.word	0x5c414141
 800252c:	392e7067 	.word	0x392e7067
 8002530:	42          	.byte	0x42
 8002531:	00          	.byte	0x00
 8002532:	4d69      	ldr	r5, [pc, #420]	@ (80026d8 <TSK_MediumFrequencyTaskM1+0x1e4>)
 8002534:	0028      	movs	r0, r5
 8002536:	f001 f8ff 	bl	8003738 <EAC_GetRestartState>
 800253a:	2800      	cmp	r0, #0
 800253c:	d030      	beq.n	80025a0 <TSK_MediumFrequencyTaskM1+0xac>
 800253e:	2100      	movs	r1, #0
 8002540:	0028      	movs	r0, r5
 8002542:	f001 f8f7 	bl	8003734 <EAC_SetRestartState>
 8002546:	2103      	movs	r1, #3
 8002548:	0020      	movs	r0, r4
 800254a:	f002 f8f3 	bl	8004734 <STM_NextState>
 800254e:	e027      	b.n	80025a0 <TSK_MediumFrequencyTaskM1+0xac>
 8002550:	4d61      	ldr	r5, [pc, #388]	@ (80026d8 <TSK_MediumFrequencyTaskM1+0x1e4>)
 8002552:	0028      	movs	r0, r5
 8002554:	f001 f8ec 	bl	8003730 <EAC_IsAligned>
 8002558:	2800      	cmp	r0, #0
 800255a:	d105      	bne.n	8002568 <TSK_MediumFrequencyTaskM1+0x74>
 800255c:	2101      	movs	r1, #1
 800255e:	0028      	movs	r0, r5
 8002560:	f001 f8e8 	bl	8003734 <EAC_SetRestartState>
 8002564:	2101      	movs	r1, #1
 8002566:	e7ef      	b.n	8002548 <TSK_MediumFrequencyTaskM1+0x54>
 8002568:	4b5c      	ldr	r3, [pc, #368]	@ (80026dc <TSK_MediumFrequencyTaskM1+0x1e8>)
 800256a:	6818      	ldr	r0, [r3, #0]
 800256c:	f001 fda2 	bl	80040b4 <R3_1_TurnOnLowSides>
 8002570:	2014      	movs	r0, #20
 8002572:	f7ff ffa3 	bl	80024bc <TSK_SetChargeBootCapDelayM1>
 8002576:	2110      	movs	r1, #16
 8002578:	e7e6      	b.n	8002548 <TSK_MediumFrequencyTaskM1+0x54>
 800257a:	f7ff ffa5 	bl	80024c8 <TSK_ChargeBootCapDelayHasElapsedM1>
 800257e:	2800      	cmp	r0, #0
 8002580:	d00e      	beq.n	80025a0 <TSK_MediumFrequencyTaskM1+0xac>
 8002582:	4b56      	ldr	r3, [pc, #344]	@ (80026dc <TSK_MediumFrequencyTaskM1+0x1e8>)
 8002584:	2100      	movs	r1, #0
 8002586:	6818      	ldr	r0, [r3, #0]
 8002588:	f001 fbd2 	bl	8003d30 <PWMC_CurrentReadingCalibr>
 800258c:	2111      	movs	r1, #17
 800258e:	e7db      	b.n	8002548 <TSK_MediumFrequencyTaskM1+0x54>
 8002590:	4b52      	ldr	r3, [pc, #328]	@ (80026dc <TSK_MediumFrequencyTaskM1+0x1e8>)
 8002592:	2101      	movs	r1, #1
 8002594:	6818      	ldr	r0, [r3, #0]
 8002596:	f001 fbcb 	bl	8003d30 <PWMC_CurrentReadingCalibr>
 800259a:	2112      	movs	r1, #18
 800259c:	2800      	cmp	r0, #0
 800259e:	d1d3      	bne.n	8002548 <TSK_MediumFrequencyTaskM1+0x54>
 80025a0:	bdf7      	pop	{r0, r1, r2, r4, r5, r6, r7, pc}
 80025a2:	0030      	movs	r0, r6
 80025a4:	f001 f902 	bl	80037ac <ENC_Clear>
 80025a8:	2104      	movs	r1, #4
 80025aa:	0020      	movs	r0, r4
 80025ac:	f002 f8c2 	bl	8004734 <STM_NextState>
 80025b0:	2800      	cmp	r0, #0
 80025b2:	d0f5      	beq.n	80025a0 <TSK_MediumFrequencyTaskM1+0xac>
 80025b4:	2000      	movs	r0, #0
 80025b6:	f7ff fe29 	bl	800220c <FOC_Clear>
 80025ba:	4b48      	ldr	r3, [pc, #288]	@ (80026dc <TSK_MediumFrequencyTaskM1+0x1e8>)
 80025bc:	6818      	ldr	r0, [r3, #0]
 80025be:	f001 fd9f 	bl	8004100 <R3_1_SwitchOnPWM>
 80025c2:	e7ed      	b.n	80025a0 <TSK_MediumFrequencyTaskM1+0xac>
 80025c4:	4b45      	ldr	r3, [pc, #276]	@ (80026dc <TSK_MediumFrequencyTaskM1+0x1e8>)
 80025c6:	6818      	ldr	r0, [r3, #0]
 80025c8:	f001 fd74 	bl	80040b4 <R3_1_TurnOnLowSides>
 80025cc:	2014      	movs	r0, #20
 80025ce:	f7ff ff75 	bl	80024bc <TSK_SetChargeBootCapDelayM1>
 80025d2:	210d      	movs	r1, #13
 80025d4:	e7b8      	b.n	8002548 <TSK_MediumFrequencyTaskM1+0x54>
 80025d6:	f7ff ff77 	bl	80024c8 <TSK_ChargeBootCapDelayHasElapsedM1>
 80025da:	2800      	cmp	r0, #0
 80025dc:	d0e0      	beq.n	80025a0 <TSK_MediumFrequencyTaskM1+0xac>
 80025de:	4b3f      	ldr	r3, [pc, #252]	@ (80026dc <TSK_MediumFrequencyTaskM1+0x1e8>)
 80025e0:	2100      	movs	r1, #0
 80025e2:	6818      	ldr	r0, [r3, #0]
 80025e4:	f001 fba4 	bl	8003d30 <PWMC_CurrentReadingCalibr>
 80025e8:	210e      	movs	r1, #14
 80025ea:	e7ad      	b.n	8002548 <TSK_MediumFrequencyTaskM1+0x54>
 80025ec:	4b3b      	ldr	r3, [pc, #236]	@ (80026dc <TSK_MediumFrequencyTaskM1+0x1e8>)
 80025ee:	2101      	movs	r1, #1
 80025f0:	6818      	ldr	r0, [r3, #0]
 80025f2:	f001 fb9d 	bl	8003d30 <PWMC_CurrentReadingCalibr>
 80025f6:	210f      	movs	r1, #15
 80025f8:	2800      	cmp	r0, #0
 80025fa:	d0d1      	beq.n	80025a0 <TSK_MediumFrequencyTaskM1+0xac>
 80025fc:	e7a4      	b.n	8002548 <TSK_MediumFrequencyTaskM1+0x54>
 80025fe:	2201      	movs	r2, #1
 8002600:	4b37      	ldr	r3, [pc, #220]	@ (80026e0 <TSK_MediumFrequencyTaskM1+0x1ec>)
 8002602:	4938      	ldr	r1, [pc, #224]	@ (80026e4 <TSK_MediumFrequencyTaskM1+0x1f0>)
 8002604:	77da      	strb	r2, [r3, #31]
 8002606:	4b38      	ldr	r3, [pc, #224]	@ (80026e8 <TSK_MediumFrequencyTaskM1+0x1f4>)
 8002608:	6818      	ldr	r0, [r3, #0]
 800260a:	f001 ffe1 	bl	80045d0 <STC_SetSpeedSensor>
 800260e:	4832      	ldr	r0, [pc, #200]	@ (80026d8 <TSK_MediumFrequencyTaskM1+0x1e4>)
 8002610:	f001 f851 	bl	80036b6 <EAC_StartAlignment>
 8002614:	2102      	movs	r1, #2
 8002616:	e7c8      	b.n	80025aa <TSK_MediumFrequencyTaskM1+0xb6>
 8002618:	4b34      	ldr	r3, [pc, #208]	@ (80026ec <TSK_MediumFrequencyTaskM1+0x1f8>)
 800261a:	6818      	ldr	r0, [r3, #0]
 800261c:	f002 fa06 	bl	8004a2c <TC_EncAlignmentCommand>
 8002620:	2105      	movs	r1, #5
 8002622:	e791      	b.n	8002548 <TSK_MediumFrequencyTaskM1+0x54>
 8002624:	482c      	ldr	r0, [pc, #176]	@ (80026d8 <TSK_MediumFrequencyTaskM1+0x1e4>)
 8002626:	f001 f86b 	bl	8003700 <EAC_Exec>
 800262a:	4f2f      	ldr	r7, [pc, #188]	@ (80026e8 <TSK_MediumFrequencyTaskM1+0x1f4>)
 800262c:	1e05      	subs	r5, r0, #0
 800262e:	d106      	bne.n	800263e <TSK_MediumFrequencyTaskM1+0x14a>
 8002630:	6838      	ldr	r0, [r7, #0]
 8002632:	f002 f824 	bl	800467e <STC_CalcTorqueReference>
 8002636:	4b2e      	ldr	r3, [pc, #184]	@ (80026f0 <TSK_MediumFrequencyTaskM1+0x1fc>)
 8002638:	821d      	strh	r5, [r3, #16]
 800263a:	8258      	strh	r0, [r3, #18]
 800263c:	e7b0      	b.n	80025a0 <TSK_MediumFrequencyTaskM1+0xac>
 800263e:	4b27      	ldr	r3, [pc, #156]	@ (80026dc <TSK_MediumFrequencyTaskM1+0x1e8>)
 8002640:	6818      	ldr	r0, [r3, #0]
 8002642:	f001 fdd1 	bl	80041e8 <R3_1_SwitchOffPWM>
 8002646:	2101      	movs	r1, #1
 8002648:	6838      	ldr	r0, [r7, #0]
 800264a:	f001 ffd4 	bl	80045f6 <STC_SetControlMode>
 800264e:	0031      	movs	r1, r6
 8002650:	6838      	ldr	r0, [r7, #0]
 8002652:	f001 ffbd 	bl	80045d0 <STC_SetSpeedSensor>
 8002656:	2107      	movs	r1, #7
 8002658:	e776      	b.n	8002548 <TSK_MediumFrequencyTaskM1+0x54>
 800265a:	2000      	movs	r0, #0
 800265c:	f7ff ff16 	bl	800248c <FOC_InitAdditionalMethods>
 8002660:	2000      	movs	r0, #0
 8002662:	f7ff ff15 	bl	8002490 <FOC_CalcCurrRef>
 8002666:	2106      	movs	r1, #6
 8002668:	0020      	movs	r0, r4
 800266a:	f002 f863 	bl	8004734 <STM_NextState>
 800266e:	4b1e      	ldr	r3, [pc, #120]	@ (80026e8 <TSK_MediumFrequencyTaskM1+0x1f4>)
 8002670:	6818      	ldr	r0, [r3, #0]
 8002672:	f002 f839 	bl	80046e8 <STC_ForceSpeedReferenceToCurrentSpeed>
 8002676:	4b1f      	ldr	r3, [pc, #124]	@ (80026f4 <TSK_MediumFrequencyTaskM1+0x200>)
 8002678:	6818      	ldr	r0, [r3, #0]
 800267a:	f7ff fca7 	bl	8001fcc <MCI_ExecBufferedCommands>
 800267e:	e78f      	b.n	80025a0 <TSK_MediumFrequencyTaskM1+0xac>
 8002680:	4b1a      	ldr	r3, [pc, #104]	@ (80026ec <TSK_MediumFrequencyTaskM1+0x1f8>)
 8002682:	6818      	ldr	r0, [r3, #0]
 8002684:	f002 fa86 	bl	8004b94 <TC_PositionRegulation>
 8002688:	4b1a      	ldr	r3, [pc, #104]	@ (80026f4 <TSK_MediumFrequencyTaskM1+0x200>)
 800268a:	6818      	ldr	r0, [r3, #0]
 800268c:	f7ff fc9e 	bl	8001fcc <MCI_ExecBufferedCommands>
 8002690:	2000      	movs	r0, #0
 8002692:	f7ff fefd 	bl	8002490 <FOC_CalcCurrRef>
 8002696:	e783      	b.n	80025a0 <TSK_MediumFrequencyTaskM1+0xac>
 8002698:	4b10      	ldr	r3, [pc, #64]	@ (80026dc <TSK_MediumFrequencyTaskM1+0x1e8>)
 800269a:	6818      	ldr	r0, [r3, #0]
 800269c:	f001 fda4 	bl	80041e8 <R3_1_SwitchOffPWM>
 80026a0:	2000      	movs	r0, #0
 80026a2:	f7ff fdb3 	bl	800220c <FOC_Clear>
 80026a6:	6828      	ldr	r0, [r5, #0]
 80026a8:	f001 f93f 	bl	800392a <MPM_Clear>
 80026ac:	20c8      	movs	r0, #200	@ 0xc8
 80026ae:	0080      	lsls	r0, r0, #2
 80026b0:	f7ff ff12 	bl	80024d8 <TSK_SetStopPermanencyTimeM1>
 80026b4:	2108      	movs	r1, #8
 80026b6:	e747      	b.n	8002548 <TSK_MediumFrequencyTaskM1+0x54>
 80026b8:	f7ff ff14 	bl	80024e4 <TSK_StopPermanencyTimeHasElapsedM1>
 80026bc:	2109      	movs	r1, #9
 80026be:	2800      	cmp	r0, #0
 80026c0:	d100      	bne.n	80026c4 <TSK_MediumFrequencyTaskM1+0x1d0>
 80026c2:	e76d      	b.n	80025a0 <TSK_MediumFrequencyTaskM1+0xac>
 80026c4:	e740      	b.n	8002548 <TSK_MediumFrequencyTaskM1+0x54>
 80026c6:	2100      	movs	r1, #0
 80026c8:	e73e      	b.n	8002548 <TSK_MediumFrequencyTaskM1+0x54>
 80026ca:	46c0      	nop			@ (mov r8, r8)
 80026cc:	20000178 	.word	0x20000178
 80026d0:	200005c8 	.word	0x200005c8
 80026d4:	200005f4 	.word	0x200005f4
 80026d8:	2000015c 	.word	0x2000015c
 80026dc:	200005cc 	.word	0x200005cc
 80026e0:	20000679 	.word	0x20000679
 80026e4:	200001f4 	.word	0x200001f4
 80026e8:	200005f0 	.word	0x200005f0
 80026ec:	200005d8 	.word	0x200005d8
 80026f0:	20000674 	.word	0x20000674
 80026f4:	20000650 	.word	0x20000650

080026f8 <MC_Scheduler>:
 80026f8:	b570      	push	{r4, r5, r6, lr}
 80026fa:	4b10      	ldr	r3, [pc, #64]	@ (800273c <MC_Scheduler+0x44>)
 80026fc:	781d      	ldrb	r5, [r3, #0]
 80026fe:	2d01      	cmp	r5, #1
 8002700:	d117      	bne.n	8002732 <MC_Scheduler+0x3a>
 8002702:	4c0f      	ldr	r4, [pc, #60]	@ (8002740 <MC_Scheduler+0x48>)
 8002704:	8823      	ldrh	r3, [r4, #0]
 8002706:	2b00      	cmp	r3, #0
 8002708:	d014      	beq.n	8002734 <MC_Scheduler+0x3c>
 800270a:	8823      	ldrh	r3, [r4, #0]
 800270c:	3b01      	subs	r3, #1
 800270e:	b29b      	uxth	r3, r3
 8002710:	8023      	strh	r3, [r4, #0]
 8002712:	4a0c      	ldr	r2, [pc, #48]	@ (8002744 <MC_Scheduler+0x4c>)
 8002714:	8813      	ldrh	r3, [r2, #0]
 8002716:	2b00      	cmp	r3, #0
 8002718:	d003      	beq.n	8002722 <MC_Scheduler+0x2a>
 800271a:	8813      	ldrh	r3, [r2, #0]
 800271c:	3b01      	subs	r3, #1
 800271e:	b29b      	uxth	r3, r3
 8002720:	8013      	strh	r3, [r2, #0]
 8002722:	4a09      	ldr	r2, [pc, #36]	@ (8002748 <MC_Scheduler+0x50>)
 8002724:	8813      	ldrh	r3, [r2, #0]
 8002726:	2b00      	cmp	r3, #0
 8002728:	d003      	beq.n	8002732 <MC_Scheduler+0x3a>
 800272a:	8813      	ldrh	r3, [r2, #0]
 800272c:	3b01      	subs	r3, #1
 800272e:	b29b      	uxth	r3, r3
 8002730:	8013      	strh	r3, [r2, #0]
 8002732:	bd70      	pop	{r4, r5, r6, pc}
 8002734:	f7ff fede 	bl	80024f4 <TSK_MediumFrequencyTaskM1>
 8002738:	8025      	strh	r5, [r4, #0]
 800273a:	e7ea      	b.n	8002712 <MC_Scheduler+0x1a>
 800273c:	200005b6 	.word	0x200005b6
 8002740:	200005bc 	.word	0x200005bc
 8002744:	200005ba 	.word	0x200005ba
 8002748:	200005b8 	.word	0x200005b8

0800274c <TSK_HighFrequencyTask>:
 800274c:	b5f0      	push	{r4, r5, r6, r7, lr}
 800274e:	4839      	ldr	r0, [pc, #228]	@ (8002834 <TSK_HighFrequencyTask+0xe8>)
 8002750:	b08b      	sub	sp, #44	@ 0x2c
 8002752:	f001 f839 	bl	80037c8 <ENC_CalcAngle>
 8002756:	4b38      	ldr	r3, [pc, #224]	@ (8002838 <TSK_HighFrequencyTask+0xec>)
 8002758:	af05      	add	r7, sp, #20
 800275a:	6818      	ldr	r0, [r3, #0]
 800275c:	f001 ff3a 	bl	80045d4 <STC_GetSpeedSensor>
 8002760:	9001      	str	r0, [sp, #4]
 8002762:	f001 fee9 	bl	8004538 <SPD_GetElAngle>
 8002766:	4d35      	ldr	r5, [pc, #212]	@ (800283c <TSK_HighFrequencyTask+0xf0>)
 8002768:	0006      	movs	r6, r0
 800276a:	a907      	add	r1, sp, #28
 800276c:	6828      	ldr	r0, [r5, #0]
 800276e:	f001 f9f2 	bl	8003b56 <PWMC_GetPhaseCurrents>
 8002772:	f000 fa51 	bl	8002c18 <RCM_ExecNextConv>
 8002776:	9807      	ldr	r0, [sp, #28]
 8002778:	f7ff fc70 	bl	800205c <MCM_Clarke>
 800277c:	0031      	movs	r1, r6
 800277e:	9008      	str	r0, [sp, #32]
 8002780:	f7ff fcde 	bl	8002140 <MCM_Park>
 8002784:	4c2e      	ldr	r4, [pc, #184]	@ (8002840 <TSK_HighFrequencyTask+0xf4>)
 8002786:	9005      	str	r0, [sp, #20]
 8002788:	2310      	movs	r3, #16
 800278a:	5ee1      	ldrsh	r1, [r4, r3]
 800278c:	4b2d      	ldr	r3, [pc, #180]	@ (8002844 <TSK_HighFrequencyTask+0xf8>)
 800278e:	b200      	sxth	r0, r0
 8002790:	1a09      	subs	r1, r1, r0
 8002792:	6818      	ldr	r0, [r3, #0]
 8002794:	f001 f93c 	bl	8003a10 <PI_Controller>
 8002798:	9002      	str	r0, [sp, #8]
 800279a:	2312      	movs	r3, #18
 800279c:	5ee1      	ldrsh	r1, [r4, r3]
 800279e:	2202      	movs	r2, #2
 80027a0:	5ebb      	ldrsh	r3, [r7, r2]
 80027a2:	1ac9      	subs	r1, r1, r3
 80027a4:	4b28      	ldr	r3, [pc, #160]	@ (8002848 <TSK_HighFrequencyTask+0xfc>)
 80027a6:	6818      	ldr	r0, [r3, #0]
 80027a8:	f001 f932 	bl	8003a10 <PI_Controller>
 80027ac:	4b27      	ldr	r3, [pc, #156]	@ (800284c <TSK_HighFrequencyTask+0x100>)
 80027ae:	9902      	ldr	r1, [sp, #8]
 80027b0:	681a      	ldr	r2, [r3, #0]
 80027b2:	ab06      	add	r3, sp, #24
 80027b4:	8058      	strh	r0, [r3, #2]
 80027b6:	8019      	strh	r1, [r3, #0]
 80027b8:	0010      	movs	r0, r2
 80027ba:	9906      	ldr	r1, [sp, #24]
 80027bc:	f000 ff4c 	bl	8003658 <Circle_Limitation>
 80027c0:	b203      	sxth	r3, r0
 80027c2:	9006      	str	r0, [sp, #24]
 80027c4:	9302      	str	r3, [sp, #8]
 80027c6:	1403      	asrs	r3, r0, #16
 80027c8:	9801      	ldr	r0, [sp, #4]
 80027ca:	9303      	str	r3, [sp, #12]
 80027cc:	f001 febc 	bl	8004548 <SPD_GetInstElSpeedDpp>
 80027d0:	0031      	movs	r1, r6
 80027d2:	9806      	ldr	r0, [sp, #24]
 80027d4:	f7ff fcf6 	bl	80021c4 <MCM_Rev_Park>
 80027d8:	0001      	movs	r1, r0
 80027da:	9009      	str	r0, [sp, #36]	@ 0x24
 80027dc:	6828      	ldr	r0, [r5, #0]
 80027de:	f001 f9be 	bl	8003b5e <PWMC_SetPhaseVoltage>
 80027e2:	0005      	movs	r5, r0
 80027e4:	f000 fa52 	bl	8002c8c <RCM_ReadOngoingConv>
 80027e8:	9b02      	ldr	r3, [sp, #8]
 80027ea:	2204      	movs	r2, #4
 80027ec:	82e3      	strh	r3, [r4, #22]
 80027ee:	9b03      	ldr	r3, [sp, #12]
 80027f0:	a907      	add	r1, sp, #28
 80027f2:	0020      	movs	r0, r4
 80027f4:	8323      	strh	r3, [r4, #24]
 80027f6:	f002 fb93 	bl	8004f20 <memcpy>
 80027fa:	2204      	movs	r2, #4
 80027fc:	a908      	add	r1, sp, #32
 80027fe:	1d20      	adds	r0, r4, #4
 8002800:	f002 fb8e 	bl	8004f20 <memcpy>
 8002804:	0020      	movs	r0, r4
 8002806:	2204      	movs	r2, #4
 8002808:	0039      	movs	r1, r7
 800280a:	300c      	adds	r0, #12
 800280c:	f002 fb88 	bl	8004f20 <memcpy>
 8002810:	0020      	movs	r0, r4
 8002812:	2204      	movs	r2, #4
 8002814:	301a      	adds	r0, #26
 8002816:	a909      	add	r1, sp, #36	@ 0x24
 8002818:	f002 fb82 	bl	8004f20 <memcpy>
 800281c:	8426      	strh	r6, [r4, #32]
 800281e:	2d01      	cmp	r5, #1
 8002820:	d104      	bne.n	800282c <TSK_HighFrequencyTask+0xe0>
 8002822:	2200      	movs	r2, #0
 8002824:	0029      	movs	r1, r5
 8002826:	480a      	ldr	r0, [pc, #40]	@ (8002850 <TSK_HighFrequencyTask+0x104>)
 8002828:	f001 ff6b 	bl	8004702 <STM_FaultProcessing>
 800282c:	2000      	movs	r0, #0
 800282e:	b00b      	add	sp, #44	@ 0x2c
 8002830:	bdf0      	pop	{r4, r5, r6, r7, pc}
 8002832:	46c0      	nop			@ (mov r8, r8)
 8002834:	20000178 	.word	0x20000178
 8002838:	200005f0 	.word	0x200005f0
 800283c:	200005cc 	.word	0x200005cc
 8002840:	20000674 	.word	0x20000674
 8002844:	200005e8 	.word	0x200005e8
 8002848:	200005e4 	.word	0x200005e4
 800284c:	200005c4 	.word	0x200005c4
 8002850:	200005f4 	.word	0x200005f4

08002854 <TSK_SafetyTask_PWMOFF>:
 8002854:	4b22      	ldr	r3, [pc, #136]	@ (80028e0 <TSK_SafetyTask_PWMOFF+0x8c>)
 8002856:	b5f7      	push	{r0, r1, r2, r4, r5, r6, r7, lr}
 8002858:	0085      	lsls	r5, r0, #2
 800285a:	0006      	movs	r6, r0
 800285c:	58e8      	ldr	r0, [r5, r3]
 800285e:	f001 f8b1 	bl	80039c4 <NTC_CalcAvTemp>
 8002862:	4b20      	ldr	r3, [pc, #128]	@ (80028e4 <TSK_SafetyTask_PWMOFF+0x90>)
 8002864:	0007      	movs	r7, r0
 8002866:	58e8      	ldr	r0, [r5, r3]
 8002868:	9301      	str	r3, [sp, #4]
 800286a:	f001 fa7f 	bl	8003d6c <PWMC_CheckOverCurrent>
 800286e:	2308      	movs	r3, #8
 8002870:	439f      	bics	r7, r3
 8002872:	4338      	orrs	r0, r7
 8002874:	b284      	uxth	r4, r0
 8002876:	2e00      	cmp	r6, #0
 8002878:	d107      	bne.n	800288a <TSK_SafetyTask_PWMOFF+0x36>
 800287a:	4b1b      	ldr	r3, [pc, #108]	@ (80028e8 <TSK_SafetyTask_PWMOFF+0x94>)
 800287c:	6818      	ldr	r0, [r3, #0]
 800287e:	f001 fe1f 	bl	80044c0 <RVBS_CalcAvVbus>
 8002882:	2308      	movs	r3, #8
 8002884:	4398      	bics	r0, r3
 8002886:	4304      	orrs	r4, r0
 8002888:	b2a4      	uxth	r4, r4
 800288a:	2706      	movs	r7, #6
 800288c:	43e2      	mvns	r2, r4
 800288e:	4377      	muls	r7, r6
 8002890:	4b16      	ldr	r3, [pc, #88]	@ (80028ec <TSK_SafetyTask_PWMOFF+0x98>)
 8002892:	0021      	movs	r1, r4
 8002894:	18ff      	adds	r7, r7, r3
 8002896:	0038      	movs	r0, r7
 8002898:	b292      	uxth	r2, r2
 800289a:	f001 ff32 	bl	8004702 <STM_FaultProcessing>
 800289e:	0038      	movs	r0, r7
 80028a0:	f001 ffbc 	bl	800481c <STM_GetState>
 80028a4:	280a      	cmp	r0, #10
 80028a6:	d002      	beq.n	80028ae <TSK_SafetyTask_PWMOFF+0x5a>
 80028a8:	280b      	cmp	r0, #11
 80028aa:	d013      	beq.n	80028d4 <TSK_SafetyTask_PWMOFF+0x80>
 80028ac:	bdf7      	pop	{r0, r1, r2, r4, r5, r6, r7, pc}
 80028ae:	4b10      	ldr	r3, [pc, #64]	@ (80028f0 <TSK_SafetyTask_PWMOFF+0x9c>)
 80028b0:	5958      	ldr	r0, [r3, r5]
 80028b2:	2800      	cmp	r0, #0
 80028b4:	d002      	beq.n	80028bc <TSK_SafetyTask_PWMOFF+0x68>
 80028b6:	2100      	movs	r1, #0
 80028b8:	f000 ff3c 	bl	8003734 <EAC_SetRestartState>
 80028bc:	9b01      	ldr	r3, [sp, #4]
 80028be:	5958      	ldr	r0, [r3, r5]
 80028c0:	f001 fa32 	bl	8003d28 <PWMC_SwitchOffPWM>
 80028c4:	0030      	movs	r0, r6
 80028c6:	f7ff fca1 	bl	800220c <FOC_Clear>
 80028ca:	4b0a      	ldr	r3, [pc, #40]	@ (80028f4 <TSK_SafetyTask_PWMOFF+0xa0>)
 80028cc:	5958      	ldr	r0, [r3, r5]
 80028ce:	f001 f82c 	bl	800392a <MPM_Clear>
 80028d2:	e7eb      	b.n	80028ac <TSK_SafetyTask_PWMOFF+0x58>
 80028d4:	9b01      	ldr	r3, [sp, #4]
 80028d6:	5958      	ldr	r0, [r3, r5]
 80028d8:	f001 fa26 	bl	8003d28 <PWMC_SwitchOffPWM>
 80028dc:	e7e6      	b.n	80028ac <TSK_SafetyTask_PWMOFF+0x58>
 80028de:	46c0      	nop			@ (mov r8, r8)
 80028e0:	200005d0 	.word	0x200005d0
 80028e4:	200005cc 	.word	0x200005cc
 80028e8:	200005dc 	.word	0x200005dc
 80028ec:	200005f4 	.word	0x200005f4
 80028f0:	200005e0 	.word	0x200005e0
 80028f4:	200005c8 	.word	0x200005c8

080028f8 <TSK_SafetyTask>:
 80028f8:	b510      	push	{r4, lr}
 80028fa:	4b05      	ldr	r3, [pc, #20]	@ (8002910 <TSK_SafetyTask+0x18>)
 80028fc:	781b      	ldrb	r3, [r3, #0]
 80028fe:	2b01      	cmp	r3, #1
 8002900:	d104      	bne.n	800290c <TSK_SafetyTask+0x14>
 8002902:	2000      	movs	r0, #0
 8002904:	f7ff ffa6 	bl	8002854 <TSK_SafetyTask_PWMOFF>
 8002908:	f000 f964 	bl	8002bd4 <RCM_ExecUserConv>
 800290c:	bd10      	pop	{r4, pc}
 800290e:	46c0      	nop			@ (mov r8, r8)
 8002910:	200005b6 	.word	0x200005b6

08002914 <MC_RunMotorControlTasks>:
 8002914:	b510      	push	{r4, lr}
 8002916:	4b05      	ldr	r3, [pc, #20]	@ (800292c <MC_RunMotorControlTasks+0x18>)
 8002918:	781b      	ldrb	r3, [r3, #0]
 800291a:	2b00      	cmp	r3, #0
 800291c:	d005      	beq.n	800292a <MC_RunMotorControlTasks+0x16>
 800291e:	f7ff feeb 	bl	80026f8 <MC_Scheduler>
 8002922:	f7ff ffe9 	bl	80028f8 <TSK_SafetyTask>
 8002926:	f000 fa87 	bl	8002e38 <UI_Scheduler>
 800292a:	bd10      	pop	{r4, pc}
 800292c:	200005b6 	.word	0x200005b6

08002930 <TSK_HardwareFaultTask>:
 8002930:	b510      	push	{r4, lr}
 8002932:	4b05      	ldr	r3, [pc, #20]	@ (8002948 <TSK_HardwareFaultTask+0x18>)
 8002934:	6818      	ldr	r0, [r3, #0]
 8002936:	f001 fc57 	bl	80041e8 <R3_1_SwitchOffPWM>
 800293a:	2200      	movs	r2, #0
 800293c:	2180      	movs	r1, #128	@ 0x80
 800293e:	4803      	ldr	r0, [pc, #12]	@ (800294c <TSK_HardwareFaultTask+0x1c>)
 8002940:	f001 fedf 	bl	8004702 <STM_FaultProcessing>
 8002944:	bd10      	pop	{r4, pc}
 8002946:	46c0      	nop			@ (mov r8, r8)
 8002948:	200005cc 	.word	0x200005cc
 800294c:	200005f4 	.word	0x200005f4

08002950 <mc_lock_pins>:
 8002950:	b570      	push	{r4, r5, r6, lr}
 8002952:	2490      	movs	r4, #144	@ 0x90
 8002954:	05e4      	lsls	r4, r4, #23
 8002956:	0020      	movs	r0, r4
 8002958:	2108      	movs	r1, #8
 800295a:	4d1f      	ldr	r5, [pc, #124]	@ (80029d8 <mc_lock_pins+0x88>)
 800295c:	f7ff fc4a 	bl	80021f4 <LL_GPIO_LockPin>
 8002960:	0020      	movs	r0, r4
 8002962:	2120      	movs	r1, #32
 8002964:	f7ff fc46 	bl	80021f4 <LL_GPIO_LockPin>
 8002968:	0020      	movs	r0, r4
 800296a:	2110      	movs	r1, #16
 800296c:	f7ff fc42 	bl	80021f4 <LL_GPIO_LockPin>
 8002970:	0028      	movs	r0, r5
 8002972:	2102      	movs	r1, #2
 8002974:	f7ff fc3e 	bl	80021f4 <LL_GPIO_LockPin>
 8002978:	0020      	movs	r0, r4
 800297a:	2140      	movs	r1, #64	@ 0x40
 800297c:	f7ff fc3a 	bl	80021f4 <LL_GPIO_LockPin>
 8002980:	0020      	movs	r0, r4
 8002982:	2180      	movs	r1, #128	@ 0x80
 8002984:	f7ff fc36 	bl	80021f4 <LL_GPIO_LockPin>
 8002988:	2180      	movs	r1, #128	@ 0x80
 800298a:	0020      	movs	r0, r4
 800298c:	0049      	lsls	r1, r1, #1
 800298e:	f7ff fc31 	bl	80021f4 <LL_GPIO_LockPin>
 8002992:	2180      	movs	r1, #128	@ 0x80
 8002994:	0020      	movs	r0, r4
 8002996:	0089      	lsls	r1, r1, #2
 8002998:	f7ff fc2c 	bl	80021f4 <LL_GPIO_LockPin>
 800299c:	2180      	movs	r1, #128	@ 0x80
 800299e:	0028      	movs	r0, r5
 80029a0:	0149      	lsls	r1, r1, #5
 80029a2:	f7ff fc27 	bl	80021f4 <LL_GPIO_LockPin>
 80029a6:	2180      	movs	r1, #128	@ 0x80
 80029a8:	0028      	movs	r0, r5
 80029aa:	01c9      	lsls	r1, r1, #7
 80029ac:	f7ff fc22 	bl	80021f4 <LL_GPIO_LockPin>
 80029b0:	2180      	movs	r1, #128	@ 0x80
 80029b2:	0020      	movs	r0, r4
 80029b4:	00c9      	lsls	r1, r1, #3
 80029b6:	f7ff fc1d 	bl	80021f4 <LL_GPIO_LockPin>
 80029ba:	2180      	movs	r1, #128	@ 0x80
 80029bc:	0028      	movs	r0, r5
 80029be:	0209      	lsls	r1, r1, #8
 80029c0:	f7ff fc18 	bl	80021f4 <LL_GPIO_LockPin>
 80029c4:	2180      	movs	r1, #128	@ 0x80
 80029c6:	0028      	movs	r0, r5
 80029c8:	0189      	lsls	r1, r1, #6
 80029ca:	f7ff fc13 	bl	80021f4 <LL_GPIO_LockPin>
 80029ce:	2102      	movs	r1, #2
 80029d0:	4802      	ldr	r0, [pc, #8]	@ (80029dc <mc_lock_pins+0x8c>)
 80029d2:	f7ff fc0f 	bl	80021f4 <LL_GPIO_LockPin>
 80029d6:	bd70      	pop	{r4, r5, r6, pc}
 80029d8:	48000400 	.word	0x48000400
 80029dc:	48001400 	.word	0x48001400

080029e0 <MX_MotorControl_Init>:
 80029e0:	b537      	push	{r0, r1, r2, r4, r5, lr}
 80029e2:	f000 fb39 	bl	8003058 <HAL_RCC_GetHCLKFreq>
 80029e6:	21fa      	movs	r1, #250	@ 0xfa
 80029e8:	00c9      	lsls	r1, r1, #3
 80029ea:	f7fd fba1 	bl	8000130 <__udivsi3>
 80029ee:	f000 fb13 	bl	8003018 <HAL_SYSTICK_Config>
 80029f2:	4d08      	ldr	r5, [pc, #32]	@ (8002a14 <MX_MotorControl_Init+0x34>)
 80029f4:	4c08      	ldr	r4, [pc, #32]	@ (8002a18 <MX_MotorControl_Init+0x38>)
 80029f6:	0029      	movs	r1, r5
 80029f8:	0020      	movs	r0, r4
 80029fa:	f7ff fc39 	bl	8002270 <MCboot>
 80029fe:	f7ff ffa7 	bl	8002950 <mc_lock_pins>
 8002a02:	4b06      	ldr	r3, [pc, #24]	@ (8002a1c <MX_MotorControl_Init+0x3c>)
 8002a04:	0022      	movs	r2, r4
 8002a06:	9300      	str	r3, [sp, #0]
 8002a08:	2101      	movs	r1, #1
 8002a0a:	002b      	movs	r3, r5
 8002a0c:	4804      	ldr	r0, [pc, #16]	@ (8002a20 <MX_MotorControl_Init+0x40>)
 8002a0e:	f000 fa11 	bl	8002e34 <UI_TaskInit>
 8002a12:	bd37      	pop	{r0, r1, r2, r4, r5, pc}
 8002a14:	2000069c 	.word	0x2000069c
 8002a18:	200006a0 	.word	0x200006a0
 8002a1c:	0800524c 	.word	0x0800524c
 8002a20:	20000550 	.word	0x20000550

08002a24 <RCM_RegisterRegConv>:
 8002a24:	0002      	movs	r2, r0
 8002a26:	2300      	movs	r3, #0
 8002a28:	20ff      	movs	r0, #255	@ 0xff
 8002a2a:	b570      	push	{r4, r5, r6, lr}
 8002a2c:	4c1d      	ldr	r4, [pc, #116]	@ (8002aa4 <RCM_RegisterRegConv+0x80>)
 8002a2e:	0099      	lsls	r1, r3, #2
 8002a30:	5909      	ldr	r1, [r1, r4]
 8002a32:	2900      	cmp	r1, #0
 8002a34:	d00a      	beq.n	8002a4c <RCM_RegisterRegConv+0x28>
 8002a36:	790e      	ldrb	r6, [r1, #4]
 8002a38:	7915      	ldrb	r5, [r2, #4]
 8002a3a:	42ae      	cmp	r6, r5
 8002a3c:	d109      	bne.n	8002a52 <RCM_RegisterRegConv+0x2e>
 8002a3e:	680d      	ldr	r5, [r1, #0]
 8002a40:	6811      	ldr	r1, [r2, #0]
 8002a42:	428d      	cmp	r5, r1
 8002a44:	d105      	bne.n	8002a52 <RCM_RegisterRegConv+0x2e>
 8002a46:	0018      	movs	r0, r3
 8002a48:	2304      	movs	r3, #4
 8002a4a:	e002      	b.n	8002a52 <RCM_RegisterRegConv+0x2e>
 8002a4c:	2804      	cmp	r0, #4
 8002a4e:	d900      	bls.n	8002a52 <RCM_RegisterRegConv+0x2e>
 8002a50:	0018      	movs	r0, r3
 8002a52:	3301      	adds	r3, #1
 8002a54:	b2db      	uxtb	r3, r3
 8002a56:	2b03      	cmp	r3, #3
 8002a58:	d9e9      	bls.n	8002a2e <RCM_RegisterRegConv+0xa>
 8002a5a:	2803      	cmp	r0, #3
 8002a5c:	d820      	bhi.n	8002aa0 <RCM_RegisterRegConv+0x7c>
 8002a5e:	0083      	lsls	r3, r0, #2
 8002a60:	50e2      	str	r2, [r4, r3]
 8002a62:	2400      	movs	r4, #0
 8002a64:	4b10      	ldr	r3, [pc, #64]	@ (8002aa8 <RCM_RegisterRegConv+0x84>)
 8002a66:	00c1      	lsls	r1, r0, #3
 8002a68:	50cc      	str	r4, [r1, r3]
 8002a6a:	6813      	ldr	r3, [r2, #0]
 8002a6c:	689a      	ldr	r2, [r3, #8]
 8002a6e:	07d2      	lsls	r2, r2, #31
 8002a70:	d40e      	bmi.n	8002a90 <RCM_RegisterRegConv+0x6c>
 8002a72:	2280      	movs	r2, #128	@ 0x80
 8002a74:	6899      	ldr	r1, [r3, #8]
 8002a76:	4c0d      	ldr	r4, [pc, #52]	@ (8002aac <RCM_RegisterRegConv+0x88>)
 8002a78:	0612      	lsls	r2, r2, #24
 8002a7a:	4021      	ands	r1, r4
 8002a7c:	430a      	orrs	r2, r1
 8002a7e:	609a      	str	r2, [r3, #8]
 8002a80:	689a      	ldr	r2, [r3, #8]
 8002a82:	2a00      	cmp	r2, #0
 8002a84:	dbfc      	blt.n	8002a80 <RCM_RegisterRegConv+0x5c>
 8002a86:	2201      	movs	r2, #1
 8002a88:	6899      	ldr	r1, [r3, #8]
 8002a8a:	4021      	ands	r1, r4
 8002a8c:	430a      	orrs	r2, r1
 8002a8e:	609a      	str	r2, [r3, #8]
 8002a90:	2206      	movs	r2, #6
 8002a92:	2100      	movs	r1, #0
 8002a94:	4342      	muls	r2, r0
 8002a96:	4b06      	ldr	r3, [pc, #24]	@ (8002ab0 <RCM_RegisterRegConv+0x8c>)
 8002a98:	54d1      	strb	r1, [r2, r3]
 8002a9a:	189b      	adds	r3, r3, r2
 8002a9c:	7158      	strb	r0, [r3, #5]
 8002a9e:	7118      	strb	r0, [r3, #4]
 8002aa0:	bd70      	pop	{r4, r5, r6, pc}
 8002aa2:	46c0      	nop			@ (mov r8, r8)
 8002aa4:	200006e4 	.word	0x200006e4
 8002aa8:	200006c4 	.word	0x200006c4
 8002aac:	7fffffe8 	.word	0x7fffffe8
 8002ab0:	200006aa 	.word	0x200006aa

08002ab4 <RCM_ExecRegularConv>:
 8002ab4:	b5f0      	push	{r4, r5, r6, r7, lr}
 8002ab6:	2606      	movs	r6, #6
 8002ab8:	0034      	movs	r4, r6
 8002aba:	4344      	muls	r4, r0
 8002abc:	4a3f      	ldr	r2, [pc, #252]	@ (8002bbc <RCM_ExecRegularConv+0x108>)
 8002abe:	5ca3      	ldrb	r3, [r4, r2]
 8002ac0:	2b00      	cmp	r3, #0
 8002ac2:	d132      	bne.n	8002b2a <RCM_ExecRegularConv+0x76>
 8002ac4:	2504      	movs	r5, #4
 8002ac6:	1914      	adds	r4, r2, r4
 8002ac8:	0037      	movs	r7, r6
 8002aca:	435f      	muls	r7, r3
 8002acc:	5dd1      	ldrb	r1, [r2, r7]
 8002ace:	2900      	cmp	r1, #0
 8002ad0:	d00a      	beq.n	8002ae8 <RCM_ExecRegularConv+0x34>
 8002ad2:	19d7      	adds	r7, r2, r7
 8002ad4:	7979      	ldrb	r1, [r7, #5]
 8002ad6:	4281      	cmp	r1, r0
 8002ad8:	d967      	bls.n	8002baa <RCM_ExecRegularConv+0xf6>
 8002ada:	7123      	strb	r3, [r4, #4]
 8002adc:	2304      	movs	r3, #4
 8002ade:	7161      	strb	r1, [r4, #5]
 8002ae0:	4371      	muls	r1, r6
 8002ae2:	1851      	adds	r1, r2, r1
 8002ae4:	7178      	strb	r0, [r7, #5]
 8002ae6:	7108      	strb	r0, [r1, #4]
 8002ae8:	3301      	adds	r3, #1
 8002aea:	b2db      	uxtb	r3, r3
 8002aec:	2b04      	cmp	r3, #4
 8002aee:	d161      	bne.n	8002bb4 <RCM_ExecRegularConv+0x100>
 8002af0:	2d04      	cmp	r5, #4
 8002af2:	d05c      	beq.n	8002bae <RCM_ExecRegularConv+0xfa>
 8002af4:	3302      	adds	r3, #2
 8002af6:	0019      	movs	r1, r3
 8002af8:	001c      	movs	r4, r3
 8002afa:	4369      	muls	r1, r5
 8002afc:	1851      	adds	r1, r2, r1
 8002afe:	794e      	ldrb	r6, [r1, #5]
 8002b00:	4344      	muls	r4, r0
 8002b02:	4373      	muls	r3, r6
 8002b04:	1914      	adds	r4, r2, r4
 8002b06:	18d3      	adds	r3, r2, r3
 8002b08:	7166      	strb	r6, [r4, #5]
 8002b0a:	7125      	strb	r5, [r4, #4]
 8002b0c:	7148      	strb	r0, [r1, #5]
 8002b0e:	7118      	strb	r0, [r3, #4]
 8002b10:	2306      	movs	r3, #6
 8002b12:	0019      	movs	r1, r3
 8002b14:	2401      	movs	r4, #1
 8002b16:	4341      	muls	r1, r0
 8002b18:	5254      	strh	r4, [r2, r1]
 8002b1a:	4929      	ldr	r1, [pc, #164]	@ (8002bc0 <RCM_ExecRegularConv+0x10c>)
 8002b1c:	780c      	ldrb	r4, [r1, #0]
 8002b1e:	4363      	muls	r3, r4
 8002b20:	18d3      	adds	r3, r2, r3
 8002b22:	785b      	ldrb	r3, [r3, #1]
 8002b24:	2b01      	cmp	r3, #1
 8002b26:	d000      	beq.n	8002b2a <RCM_ExecRegularConv+0x76>
 8002b28:	7008      	strb	r0, [r1, #0]
 8002b2a:	4b26      	ldr	r3, [pc, #152]	@ (8002bc4 <RCM_ExecRegularConv+0x110>)
 8002b2c:	781b      	ldrb	r3, [r3, #0]
 8002b2e:	2b00      	cmp	r3, #0
 8002b30:	d135      	bne.n	8002b9e <RCM_ExecRegularConv+0xea>
 8002b32:	2603      	movs	r6, #3
 8002b34:	4c24      	ldr	r4, [pc, #144]	@ (8002bc8 <RCM_ExecRegularConv+0x114>)
 8002b36:	0083      	lsls	r3, r0, #2
 8002b38:	591d      	ldr	r5, [r3, r4]
 8002b3a:	682b      	ldr	r3, [r5, #0]
 8002b3c:	68d9      	ldr	r1, [r3, #12]
 8002b3e:	43b1      	bics	r1, r6
 8002b40:	60d9      	str	r1, [r3, #12]
 8002b42:	68d9      	ldr	r1, [r3, #12]
 8002b44:	4e21      	ldr	r6, [pc, #132]	@ (8002bcc <RCM_ExecRegularConv+0x118>)
 8002b46:	4031      	ands	r1, r6
 8002b48:	2607      	movs	r6, #7
 8002b4a:	60d9      	str	r1, [r3, #12]
 8002b4c:	6959      	ldr	r1, [r3, #20]
 8002b4e:	43b1      	bics	r1, r6
 8002b50:	68ae      	ldr	r6, [r5, #8]
 8002b52:	4331      	orrs	r1, r6
 8002b54:	6159      	str	r1, [r3, #20]
 8002b56:	2180      	movs	r1, #128	@ 0x80
 8002b58:	792d      	ldrb	r5, [r5, #4]
 8002b5a:	0189      	lsls	r1, r1, #6
 8002b5c:	40a9      	lsls	r1, r5
 8002b5e:	2504      	movs	r5, #4
 8002b60:	0b49      	lsrs	r1, r1, #13
 8002b62:	6299      	str	r1, [r3, #40]	@ 0x28
 8002b64:	601d      	str	r5, [r3, #0]
 8002b66:	6899      	ldr	r1, [r3, #8]
 8002b68:	4e19      	ldr	r6, [pc, #100]	@ (8002bd0 <RCM_ExecRegularConv+0x11c>)
 8002b6a:	4031      	ands	r1, r6
 8002b6c:	4329      	orrs	r1, r5
 8002b6e:	6099      	str	r1, [r3, #8]
 8002b70:	6819      	ldr	r1, [r3, #0]
 8002b72:	4229      	tst	r1, r5
 8002b74:	d0fc      	beq.n	8002b70 <RCM_ExecRegularConv+0xbc>
 8002b76:	6c19      	ldr	r1, [r3, #64]	@ 0x40
 8002b78:	2306      	movs	r3, #6
 8002b7a:	4343      	muls	r3, r0
 8002b7c:	4d10      	ldr	r5, [pc, #64]	@ (8002bc0 <RCM_ExecRegularConv+0x10c>)
 8002b7e:	18d3      	adds	r3, r2, r3
 8002b80:	782a      	ldrb	r2, [r5, #0]
 8002b82:	8059      	strh	r1, [r3, #2]
 8002b84:	0092      	lsls	r2, r2, #2
 8002b86:	58a2      	ldr	r2, [r4, r2]
 8002b88:	6814      	ldr	r4, [r2, #0]
 8002b8a:	2203      	movs	r2, #3
 8002b8c:	68e1      	ldr	r1, [r4, #12]
 8002b8e:	4391      	bics	r1, r2
 8002b90:	3a02      	subs	r2, #2
 8002b92:	430a      	orrs	r2, r1
 8002b94:	60e2      	str	r2, [r4, #12]
 8002b96:	795a      	ldrb	r2, [r3, #5]
 8002b98:	702a      	strb	r2, [r5, #0]
 8002b9a:	2202      	movs	r2, #2
 8002b9c:	705a      	strb	r2, [r3, #1]
 8002b9e:	2206      	movs	r2, #6
 8002ba0:	4342      	muls	r2, r0
 8002ba2:	4b06      	ldr	r3, [pc, #24]	@ (8002bbc <RCM_ExecRegularConv+0x108>)
 8002ba4:	189b      	adds	r3, r3, r2
 8002ba6:	8858      	ldrh	r0, [r3, #2]
 8002ba8:	bdf0      	pop	{r4, r5, r6, r7, pc}
 8002baa:	001d      	movs	r5, r3
 8002bac:	e79c      	b.n	8002ae8 <RCM_ExecRegularConv+0x34>
 8002bae:	4b04      	ldr	r3, [pc, #16]	@ (8002bc0 <RCM_ExecRegularConv+0x10c>)
 8002bb0:	7018      	strb	r0, [r3, #0]
 8002bb2:	e7ad      	b.n	8002b10 <RCM_ExecRegularConv+0x5c>
 8002bb4:	2b03      	cmp	r3, #3
 8002bb6:	d800      	bhi.n	8002bba <RCM_ExecRegularConv+0x106>
 8002bb8:	e786      	b.n	8002ac8 <RCM_ExecRegularConv+0x14>
 8002bba:	e7a9      	b.n	8002b10 <RCM_ExecRegularConv+0x5c>
 8002bbc:	200006aa 	.word	0x200006aa
 8002bc0:	200006a9 	.word	0x200006a9
 8002bc4:	200002e3 	.word	0x200002e3
 8002bc8:	200006e4 	.word	0x200006e4
 8002bcc:	fffff23f 	.word	0xfffff23f
 8002bd0:	7fffffe8 	.word	0x7fffffe8

08002bd4 <RCM_ExecUserConv>:
 8002bd4:	b570      	push	{r4, r5, r6, lr}
 8002bd6:	4c0c      	ldr	r4, [pc, #48]	@ (8002c08 <RCM_ExecUserConv+0x34>)
 8002bd8:	7823      	ldrb	r3, [r4, #0]
 8002bda:	2b01      	cmp	r3, #1
 8002bdc:	d113      	bne.n	8002c06 <RCM_ExecUserConv+0x32>
 8002bde:	4d0b      	ldr	r5, [pc, #44]	@ (8002c0c <RCM_ExecUserConv+0x38>)
 8002be0:	7828      	ldrb	r0, [r5, #0]
 8002be2:	f7ff ff67 	bl	8002ab4 <RCM_ExecRegularConv>
 8002be6:	4b0a      	ldr	r3, [pc, #40]	@ (8002c10 <RCM_ExecUserConv+0x3c>)
 8002be8:	0001      	movs	r1, r0
 8002bea:	8018      	strh	r0, [r3, #0]
 8002bec:	2302      	movs	r3, #2
 8002bee:	7828      	ldrb	r0, [r5, #0]
 8002bf0:	7023      	strb	r3, [r4, #0]
 8002bf2:	4b08      	ldr	r3, [pc, #32]	@ (8002c14 <RCM_ExecUserConv+0x40>)
 8002bf4:	00c2      	lsls	r2, r0, #3
 8002bf6:	58d5      	ldr	r5, [r2, r3]
 8002bf8:	2d00      	cmp	r5, #0
 8002bfa:	d004      	beq.n	8002c06 <RCM_ExecUserConv+0x32>
 8002bfc:	2600      	movs	r6, #0
 8002bfe:	189b      	adds	r3, r3, r2
 8002c00:	685a      	ldr	r2, [r3, #4]
 8002c02:	7026      	strb	r6, [r4, #0]
 8002c04:	47a8      	blx	r5
 8002c06:	bd70      	pop	{r4, r5, r6, pc}
 8002c08:	200006a4 	.word	0x200006a4
 8002c0c:	200006a8 	.word	0x200006a8
 8002c10:	200006a6 	.word	0x200006a6
 8002c14:	200006c4 	.word	0x200006c4

08002c18 <RCM_ExecNextConv>:
 8002c18:	2006      	movs	r0, #6
 8002c1a:	b570      	push	{r4, r5, r6, lr}
 8002c1c:	4b15      	ldr	r3, [pc, #84]	@ (8002c74 <RCM_ExecNextConv+0x5c>)
 8002c1e:	4916      	ldr	r1, [pc, #88]	@ (8002c78 <RCM_ExecNextConv+0x60>)
 8002c20:	781b      	ldrb	r3, [r3, #0]
 8002c22:	4358      	muls	r0, r3
 8002c24:	5c42      	ldrb	r2, [r0, r1]
 8002c26:	2a00      	cmp	r2, #0
 8002c28:	d022      	beq.n	8002c70 <RCM_ExecNextConv+0x58>
 8002c2a:	2404      	movs	r4, #4
 8002c2c:	2603      	movs	r6, #3
 8002c2e:	4a13      	ldr	r2, [pc, #76]	@ (8002c7c <RCM_ExecNextConv+0x64>)
 8002c30:	009b      	lsls	r3, r3, #2
 8002c32:	6014      	str	r4, [r2, #0]
 8002c34:	4a12      	ldr	r2, [pc, #72]	@ (8002c80 <RCM_ExecNextConv+0x68>)
 8002c36:	1809      	adds	r1, r1, r0
 8002c38:	589d      	ldr	r5, [r3, r2]
 8002c3a:	682b      	ldr	r3, [r5, #0]
 8002c3c:	68da      	ldr	r2, [r3, #12]
 8002c3e:	43b2      	bics	r2, r6
 8002c40:	60da      	str	r2, [r3, #12]
 8002c42:	68da      	ldr	r2, [r3, #12]
 8002c44:	4e0f      	ldr	r6, [pc, #60]	@ (8002c84 <RCM_ExecNextConv+0x6c>)
 8002c46:	4032      	ands	r2, r6
 8002c48:	2607      	movs	r6, #7
 8002c4a:	60da      	str	r2, [r3, #12]
 8002c4c:	695a      	ldr	r2, [r3, #20]
 8002c4e:	43b2      	bics	r2, r6
 8002c50:	68ae      	ldr	r6, [r5, #8]
 8002c52:	4332      	orrs	r2, r6
 8002c54:	615a      	str	r2, [r3, #20]
 8002c56:	792a      	ldrb	r2, [r5, #4]
 8002c58:	2501      	movs	r5, #1
 8002c5a:	002e      	movs	r6, r5
 8002c5c:	4096      	lsls	r6, r2
 8002c5e:	0372      	lsls	r2, r6, #13
 8002c60:	0b52      	lsrs	r2, r2, #13
 8002c62:	629a      	str	r2, [r3, #40]	@ 0x28
 8002c64:	689a      	ldr	r2, [r3, #8]
 8002c66:	4e08      	ldr	r6, [pc, #32]	@ (8002c88 <RCM_ExecNextConv+0x70>)
 8002c68:	4032      	ands	r2, r6
 8002c6a:	4314      	orrs	r4, r2
 8002c6c:	609c      	str	r4, [r3, #8]
 8002c6e:	704d      	strb	r5, [r1, #1]
 8002c70:	bd70      	pop	{r4, r5, r6, pc}
 8002c72:	46c0      	nop			@ (mov r8, r8)
 8002c74:	200006a9 	.word	0x200006a9
 8002c78:	200006aa 	.word	0x200006aa
 8002c7c:	40012400 	.word	0x40012400
 8002c80:	200006e4 	.word	0x200006e4
 8002c84:	fffff23f 	.word	0xfffff23f
 8002c88:	7fffffe8 	.word	0x7fffffe8

08002c8c <RCM_ReadOngoingConv>:
 8002c8c:	2306      	movs	r3, #6
 8002c8e:	b570      	push	{r4, r5, r6, lr}
 8002c90:	4c0d      	ldr	r4, [pc, #52]	@ (8002cc8 <RCM_ReadOngoingConv+0x3c>)
 8002c92:	4a0e      	ldr	r2, [pc, #56]	@ (8002ccc <RCM_ReadOngoingConv+0x40>)
 8002c94:	7821      	ldrb	r1, [r4, #0]
 8002c96:	434b      	muls	r3, r1
 8002c98:	18d3      	adds	r3, r2, r3
 8002c9a:	785d      	ldrb	r5, [r3, #1]
 8002c9c:	2d01      	cmp	r5, #1
 8002c9e:	d10c      	bne.n	8002cba <RCM_ReadOngoingConv+0x2e>
 8002ca0:	480b      	ldr	r0, [pc, #44]	@ (8002cd0 <RCM_ReadOngoingConv+0x44>)
 8002ca2:	008e      	lsls	r6, r1, #2
 8002ca4:	5830      	ldr	r0, [r6, r0]
 8002ca6:	6806      	ldr	r6, [r0, #0]
 8002ca8:	6c30      	ldr	r0, [r6, #64]	@ 0x40
 8002caa:	8058      	strh	r0, [r3, #2]
 8002cac:	2002      	movs	r0, #2
 8002cae:	7058      	strb	r0, [r3, #1]
 8002cb0:	2303      	movs	r3, #3
 8002cb2:	68f0      	ldr	r0, [r6, #12]
 8002cb4:	4398      	bics	r0, r3
 8002cb6:	4328      	orrs	r0, r5
 8002cb8:	60f0      	str	r0, [r6, #12]
 8002cba:	2306      	movs	r3, #6
 8002cbc:	434b      	muls	r3, r1
 8002cbe:	18d2      	adds	r2, r2, r3
 8002cc0:	7953      	ldrb	r3, [r2, #5]
 8002cc2:	7023      	strb	r3, [r4, #0]
 8002cc4:	bd70      	pop	{r4, r5, r6, pc}
 8002cc6:	46c0      	nop			@ (mov r8, r8)
 8002cc8:	200006a9 	.word	0x200006a9
 8002ccc:	200006aa 	.word	0x200006aa
 8002cd0:	200006e4 	.word	0x200006e4

08002cd4 <HAL_MspInit>:
 8002cd4:	2101      	movs	r1, #1
 8002cd6:	4b0a      	ldr	r3, [pc, #40]	@ (8002d00 <HAL_MspInit+0x2c>)
 8002cd8:	b082      	sub	sp, #8
 8002cda:	699a      	ldr	r2, [r3, #24]
 8002cdc:	430a      	orrs	r2, r1
 8002cde:	619a      	str	r2, [r3, #24]
 8002ce0:	699a      	ldr	r2, [r3, #24]
 8002ce2:	400a      	ands	r2, r1
 8002ce4:	2180      	movs	r1, #128	@ 0x80
 8002ce6:	9200      	str	r2, [sp, #0]
 8002ce8:	9a00      	ldr	r2, [sp, #0]
 8002cea:	69da      	ldr	r2, [r3, #28]
 8002cec:	0549      	lsls	r1, r1, #21
 8002cee:	430a      	orrs	r2, r1
 8002cf0:	61da      	str	r2, [r3, #28]
 8002cf2:	69db      	ldr	r3, [r3, #28]
 8002cf4:	400b      	ands	r3, r1
 8002cf6:	9301      	str	r3, [sp, #4]
 8002cf8:	9b01      	ldr	r3, [sp, #4]
 8002cfa:	b002      	add	sp, #8
 8002cfc:	4770      	bx	lr
 8002cfe:	46c0      	nop			@ (mov r8, r8)
 8002d00:	40021000 	.word	0x40021000

08002d04 <TIM14_IRQHandler>:
 8002d04:	4770      	bx	lr
	...

08002d08 <TIM16_IRQHandler>:
 8002d08:	2202      	movs	r2, #2
 8002d0a:	4b02      	ldr	r3, [pc, #8]	@ (8002d14 <TIM16_IRQHandler+0xc>)
 8002d0c:	4252      	negs	r2, r2
 8002d0e:	611a      	str	r2, [r3, #16]
 8002d10:	4770      	bx	lr
 8002d12:	46c0      	nop			@ (mov r8, r8)
 8002d14:	40014400 	.word	0x40014400

08002d18 <USART1_IRQHandler>:
 8002d18:	4a09      	ldr	r2, [pc, #36]	@ (8002d40 <USART1_IRQHandler+0x28>)
 8002d1a:	b510      	push	{r4, lr}
 8002d1c:	6813      	ldr	r3, [r2, #0]
 8002d1e:	069b      	lsls	r3, r3, #26
 8002d20:	d50d      	bpl.n	8002d3e <USART1_IRQHandler+0x26>
 8002d22:	4c08      	ldr	r4, [pc, #32]	@ (8002d44 <USART1_IRQHandler+0x2c>)
 8002d24:	8c92      	ldrh	r2, [r2, #36]	@ 0x24
 8002d26:	7823      	ldrb	r3, [r4, #0]
 8002d28:	4807      	ldr	r0, [pc, #28]	@ (8002d48 <USART1_IRQHandler+0x30>)
 8002d2a:	54c2      	strb	r2, [r0, r3]
 8002d2c:	3301      	adds	r3, #1
 8002d2e:	b2db      	uxtb	r3, r3
 8002d30:	7023      	strb	r3, [r4, #0]
 8002d32:	2b0a      	cmp	r3, #10
 8002d34:	d903      	bls.n	8002d3e <USART1_IRQHandler+0x26>
 8002d36:	f7fe fb4f 	bl	80013d8 <ProcessReceivedMessage>
 8002d3a:	2300      	movs	r3, #0
 8002d3c:	7023      	strb	r3, [r4, #0]
 8002d3e:	bd10      	pop	{r4, pc}
 8002d40:	40013800 	.word	0x40013800
 8002d44:	200006ff 	.word	0x200006ff
 8002d48:	200006f4 	.word	0x200006f4

08002d4c <DMA1_Channel1_IRQHandler>:
 8002d4c:	2207      	movs	r2, #7
 8002d4e:	b510      	push	{r4, lr}
 8002d50:	4b02      	ldr	r3, [pc, #8]	@ (8002d5c <DMA1_Channel1_IRQHandler+0x10>)
 8002d52:	605a      	str	r2, [r3, #4]
 8002d54:	f7ff fcfa 	bl	800274c <TSK_HighFrequencyTask>
 8002d58:	bd10      	pop	{r4, pc}
 8002d5a:	46c0      	nop			@ (mov r8, r8)
 8002d5c:	40020000 	.word	0x40020000

08002d60 <TIM1_BRK_UP_TRG_COM_IRQHandler>:
 8002d60:	2201      	movs	r2, #1
 8002d62:	b510      	push	{r4, lr}
 8002d64:	4c0e      	ldr	r4, [pc, #56]	@ (8002da0 <TIM1_BRK_UP_TRG_COM_IRQHandler+0x40>)
 8002d66:	6fa3      	ldr	r3, [r4, #120]	@ 0x78
 8002d68:	681b      	ldr	r3, [r3, #0]
 8002d6a:	6919      	ldr	r1, [r3, #16]
 8002d6c:	4211      	tst	r1, r2
 8002d6e:	d007      	beq.n	8002d80 <TIM1_BRK_UP_TRG_COM_IRQHandler+0x20>
 8002d70:	68d9      	ldr	r1, [r3, #12]
 8002d72:	4211      	tst	r1, r2
 8002d74:	d004      	beq.n	8002d80 <TIM1_BRK_UP_TRG_COM_IRQHandler+0x20>
 8002d76:	3a03      	subs	r2, #3
 8002d78:	0020      	movs	r0, r4
 8002d7a:	611a      	str	r2, [r3, #16]
 8002d7c:	f001 fb0e 	bl	800439c <R3_1_TIMx_UP_IRQHandler>
 8002d80:	2280      	movs	r2, #128	@ 0x80
 8002d82:	6fa3      	ldr	r3, [r4, #120]	@ 0x78
 8002d84:	681b      	ldr	r3, [r3, #0]
 8002d86:	6919      	ldr	r1, [r3, #16]
 8002d88:	4211      	tst	r1, r2
 8002d8a:	d008      	beq.n	8002d9e <TIM1_BRK_UP_TRG_COM_IRQHandler+0x3e>
 8002d8c:	68d9      	ldr	r1, [r3, #12]
 8002d8e:	4211      	tst	r1, r2
 8002d90:	d005      	beq.n	8002d9e <TIM1_BRK_UP_TRG_COM_IRQHandler+0x3e>
 8002d92:	3a02      	subs	r2, #2
 8002d94:	3aff      	subs	r2, #255	@ 0xff
 8002d96:	0020      	movs	r0, r4
 8002d98:	611a      	str	r2, [r3, #16]
 8002d9a:	f001 fb3f 	bl	800441c <F0XX_BRK_IRQHandler>
 8002d9e:	bd10      	pop	{r4, pc}
 8002da0:	2000026c 	.word	0x2000026c

08002da4 <DMA1_Channel4_5_IRQHandler>:
 8002da4:	2280      	movs	r2, #128	@ 0x80
 8002da6:	4b03      	ldr	r3, [pc, #12]	@ (8002db4 <DMA1_Channel4_5_IRQHandler+0x10>)
 8002da8:	0192      	lsls	r2, r2, #6
 8002daa:	6819      	ldr	r1, [r3, #0]
 8002dac:	4211      	tst	r1, r2
 8002dae:	d000      	beq.n	8002db2 <DMA1_Channel4_5_IRQHandler+0xe>
 8002db0:	605a      	str	r2, [r3, #4]
 8002db2:	4770      	bx	lr
 8002db4:	40020000 	.word	0x40020000

08002db8 <TIM3_IRQHandler>:
 8002db8:	2201      	movs	r2, #1
 8002dba:	4807      	ldr	r0, [pc, #28]	@ (8002dd8 <TIM3_IRQHandler+0x20>)
 8002dbc:	b510      	push	{r4, lr}
 8002dbe:	6a03      	ldr	r3, [r0, #32]
 8002dc0:	68d9      	ldr	r1, [r3, #12]
 8002dc2:	4211      	tst	r1, r2
 8002dc4:	d006      	beq.n	8002dd4 <TIM3_IRQHandler+0x1c>
 8002dc6:	6919      	ldr	r1, [r3, #16]
 8002dc8:	4211      	tst	r1, r2
 8002dca:	d003      	beq.n	8002dd4 <TIM3_IRQHandler+0x1c>
 8002dcc:	3a03      	subs	r2, #3
 8002dce:	611a      	str	r2, [r3, #16]
 8002dd0:	f000 fda4 	bl	800391c <ENC_IRQHandler>
 8002dd4:	bd10      	pop	{r4, pc}
 8002dd6:	46c0      	nop			@ (mov r8, r8)
 8002dd8:	20000178 	.word	0x20000178

08002ddc <HardFault_Handler>:
 8002ddc:	b510      	push	{r4, lr}
 8002dde:	f7ff fda7 	bl	8002930 <TSK_HardwareFaultTask>
 8002de2:	e7fe      	b.n	8002de2 <HardFault_Handler+0x6>

08002de4 <SysTick_Handler>:
 8002de4:	b510      	push	{r4, lr}
 8002de6:	4c09      	ldr	r4, [pc, #36]	@ (8002e0c <SysTick_Handler+0x28>)
 8002de8:	7823      	ldrb	r3, [r4, #0]
 8002dea:	2b02      	cmp	r3, #2
 8002dec:	d105      	bne.n	8002dfa <SysTick_Handler+0x16>
 8002dee:	f000 f8c5 	bl	8002f7c <HAL_IncTick>
 8002df2:	f000 f92c 	bl	800304e <HAL_SYSTICK_IRQHandler>
 8002df6:	2300      	movs	r3, #0
 8002df8:	7023      	strb	r3, [r4, #0]
 8002dfa:	7823      	ldrb	r3, [r4, #0]
 8002dfc:	3301      	adds	r3, #1
 8002dfe:	7023      	strb	r3, [r4, #0]
 8002e00:	f7ff fd88 	bl	8002914 <MC_RunMotorControlTasks>
 8002e04:	4802      	ldr	r0, [pc, #8]	@ (8002e10 <SysTick_Handler+0x2c>)
 8002e06:	f001 ff26 	bl	8004c56 <TC_IncTick>
 8002e0a:	bd10      	pop	{r4, pc}
 8002e0c:	20000554 	.word	0x20000554
 8002e10:	2000031c 	.word	0x2000031c

08002e14 <EXTI0_1_IRQHandler>:
 8002e14:	2202      	movs	r2, #2
 8002e16:	4b05      	ldr	r3, [pc, #20]	@ (8002e2c <EXTI0_1_IRQHandler+0x18>)
 8002e18:	b510      	push	{r4, lr}
 8002e1a:	6959      	ldr	r1, [r3, #20]
 8002e1c:	4211      	tst	r1, r2
 8002e1e:	d003      	beq.n	8002e28 <EXTI0_1_IRQHandler+0x14>
 8002e20:	4803      	ldr	r0, [pc, #12]	@ (8002e30 <EXTI0_1_IRQHandler+0x1c>)
 8002e22:	615a      	str	r2, [r3, #20]
 8002e24:	f001 fee8 	bl	8004bf8 <TC_EncoderReset>
 8002e28:	bd10      	pop	{r4, pc}
 8002e2a:	46c0      	nop			@ (mov r8, r8)
 8002e2c:	40010400 	.word	0x40010400
 8002e30:	2000031c 	.word	0x2000031c

08002e34 <UI_TaskInit>:
 8002e34:	4770      	bx	lr
	...

08002e38 <UI_Scheduler>:
 8002e38:	4a0c      	ldr	r2, [pc, #48]	@ (8002e6c <UI_Scheduler+0x34>)
 8002e3a:	8813      	ldrh	r3, [r2, #0]
 8002e3c:	2b00      	cmp	r3, #0
 8002e3e:	d003      	beq.n	8002e48 <UI_Scheduler+0x10>
 8002e40:	8813      	ldrh	r3, [r2, #0]
 8002e42:	3b01      	subs	r3, #1
 8002e44:	b29b      	uxth	r3, r3
 8002e46:	8013      	strh	r3, [r2, #0]
 8002e48:	4a09      	ldr	r2, [pc, #36]	@ (8002e70 <UI_Scheduler+0x38>)
 8002e4a:	8813      	ldrh	r3, [r2, #0]
 8002e4c:	2b01      	cmp	r3, #1
 8002e4e:	d903      	bls.n	8002e58 <UI_Scheduler+0x20>
 8002e50:	8813      	ldrh	r3, [r2, #0]
 8002e52:	3b01      	subs	r3, #1
 8002e54:	b29b      	uxth	r3, r3
 8002e56:	8013      	strh	r3, [r2, #0]
 8002e58:	4a06      	ldr	r2, [pc, #24]	@ (8002e74 <UI_Scheduler+0x3c>)
 8002e5a:	8813      	ldrh	r3, [r2, #0]
 8002e5c:	2b01      	cmp	r3, #1
 8002e5e:	d903      	bls.n	8002e68 <UI_Scheduler+0x30>
 8002e60:	8813      	ldrh	r3, [r2, #0]
 8002e62:	3b01      	subs	r3, #1
 8002e64:	b29b      	uxth	r3, r3
 8002e66:	8013      	strh	r3, [r2, #0]
 8002e68:	4770      	bx	lr
 8002e6a:	46c0      	nop			@ (mov r8, r8)
 8002e6c:	20000702 	.word	0x20000702
 8002e70:	20000700 	.word	0x20000700
 8002e74:	20000556 	.word	0x20000556

08002e78 <ConvertFloatTwoBytes>:
 8002e78:	b507      	push	{r0, r1, r2, lr}
 8002e7a:	2204      	movs	r2, #4
 8002e7c:	9001      	str	r0, [sp, #4]
 8002e7e:	0008      	movs	r0, r1
 8002e80:	a901      	add	r1, sp, #4
 8002e82:	f002 f84d 	bl	8004f20 <memcpy>
 8002e86:	2000      	movs	r0, #0
 8002e88:	bd0e      	pop	{r1, r2, r3, pc}

08002e8a <ProcessReceivedUint16>:
 8002e8a:	7843      	ldrb	r3, [r0, #1]
 8002e8c:	7802      	ldrb	r2, [r0, #0]
 8002e8e:	021b      	lsls	r3, r3, #8
 8002e90:	4313      	orrs	r3, r2
 8002e92:	2000      	movs	r0, #0
 8002e94:	800b      	strh	r3, [r1, #0]
 8002e96:	4770      	bx	lr

08002e98 <ProcessReceivedInt16>:
 8002e98:	7843      	ldrb	r3, [r0, #1]
 8002e9a:	7802      	ldrb	r2, [r0, #0]
 8002e9c:	021b      	lsls	r3, r3, #8
 8002e9e:	4313      	orrs	r3, r2
 8002ea0:	2000      	movs	r0, #0
 8002ea2:	800b      	strh	r3, [r1, #0]
 8002ea4:	4770      	bx	lr

08002ea6 <ProcessReceivedFloat>:
 8002ea6:	7843      	ldrb	r3, [r0, #1]
 8002ea8:	7802      	ldrb	r2, [r0, #0]
 8002eaa:	021b      	lsls	r3, r3, #8
 8002eac:	4313      	orrs	r3, r2
 8002eae:	7882      	ldrb	r2, [r0, #2]
 8002eb0:	0412      	lsls	r2, r2, #16
 8002eb2:	431a      	orrs	r2, r3
 8002eb4:	78c3      	ldrb	r3, [r0, #3]
 8002eb6:	2000      	movs	r0, #0
 8002eb8:	061b      	lsls	r3, r3, #24
 8002eba:	4313      	orrs	r3, r2
 8002ebc:	600b      	str	r3, [r1, #0]
 8002ebe:	4770      	bx	lr

08002ec0 <SendMessage>:
 8002ec0:	b510      	push	{r4, lr}
 8002ec2:	2448      	movs	r4, #72	@ 0x48
 8002ec4:	4b10      	ldr	r3, [pc, #64]	@ (8002f08 <SendMessage+0x48>)
 8002ec6:	701c      	strb	r4, [r3, #0]
 8002ec8:	3412      	adds	r4, #18
 8002eca:	7098      	strb	r0, [r3, #2]
 8002ecc:	705c      	strb	r4, [r3, #1]
 8002ece:	7808      	ldrb	r0, [r1, #0]
 8002ed0:	70d8      	strb	r0, [r3, #3]
 8002ed2:	7848      	ldrb	r0, [r1, #1]
 8002ed4:	7118      	strb	r0, [r3, #4]
 8002ed6:	7888      	ldrb	r0, [r1, #2]
 8002ed8:	7158      	strb	r0, [r3, #5]
 8002eda:	78c9      	ldrb	r1, [r1, #3]
 8002edc:	2080      	movs	r0, #128	@ 0x80
 8002ede:	7199      	strb	r1, [r3, #6]
 8002ee0:	7811      	ldrb	r1, [r2, #0]
 8002ee2:	71d9      	strb	r1, [r3, #7]
 8002ee4:	7851      	ldrb	r1, [r2, #1]
 8002ee6:	7219      	strb	r1, [r3, #8]
 8002ee8:	7891      	ldrb	r1, [r2, #2]
 8002eea:	7259      	strb	r1, [r3, #9]
 8002eec:	78d2      	ldrb	r2, [r2, #3]
 8002eee:	4907      	ldr	r1, [pc, #28]	@ (8002f0c <SendMessage+0x4c>)
 8002ef0:	729a      	strb	r2, [r3, #10]
 8002ef2:	2200      	movs	r2, #0
 8002ef4:	5c9c      	ldrb	r4, [r3, r2]
 8002ef6:	850c      	strh	r4, [r1, #40]	@ 0x28
 8002ef8:	69cc      	ldr	r4, [r1, #28]
 8002efa:	4204      	tst	r4, r0
 8002efc:	d0fc      	beq.n	8002ef8 <SendMessage+0x38>
 8002efe:	3201      	adds	r2, #1
 8002f00:	2a0b      	cmp	r2, #11
 8002f02:	d1f7      	bne.n	8002ef4 <SendMessage+0x34>
 8002f04:	2000      	movs	r0, #0
 8002f06:	bd10      	pop	{r4, pc}
 8002f08:	20000704 	.word	0x20000704
 8002f0c:	40013800 	.word	0x40013800

08002f10 <SystemInit>:
 8002f10:	4770      	bx	lr
	...

08002f14 <HAL_InitTick>:
 8002f14:	b570      	push	{r4, r5, r6, lr}
 8002f16:	0005      	movs	r5, r0
 8002f18:	20fa      	movs	r0, #250	@ 0xfa
 8002f1a:	4b0d      	ldr	r3, [pc, #52]	@ (8002f50 <HAL_InitTick+0x3c>)
 8002f1c:	0080      	lsls	r0, r0, #2
 8002f1e:	7819      	ldrb	r1, [r3, #0]
 8002f20:	f7fd f906 	bl	8000130 <__udivsi3>
 8002f24:	4c0b      	ldr	r4, [pc, #44]	@ (8002f54 <HAL_InitTick+0x40>)
 8002f26:	0001      	movs	r1, r0
 8002f28:	6820      	ldr	r0, [r4, #0]
 8002f2a:	f7fd f901 	bl	8000130 <__udivsi3>
 8002f2e:	f000 f873 	bl	8003018 <HAL_SYSTICK_Config>
 8002f32:	0004      	movs	r4, r0
 8002f34:	2001      	movs	r0, #1
 8002f36:	2c00      	cmp	r4, #0
 8002f38:	d109      	bne.n	8002f4e <HAL_InitTick+0x3a>
 8002f3a:	2d03      	cmp	r5, #3
 8002f3c:	d807      	bhi.n	8002f4e <HAL_InitTick+0x3a>
 8002f3e:	3802      	subs	r0, #2
 8002f40:	0022      	movs	r2, r4
 8002f42:	0029      	movs	r1, r5
 8002f44:	f000 f83e 	bl	8002fc4 <HAL_NVIC_SetPriority>
 8002f48:	0020      	movs	r0, r4
 8002f4a:	4b03      	ldr	r3, [pc, #12]	@ (8002f58 <HAL_InitTick+0x44>)
 8002f4c:	601d      	str	r5, [r3, #0]
 8002f4e:	bd70      	pop	{r4, r5, r6, pc}
 8002f50:	2000055c 	.word	0x2000055c
 8002f54:	20000558 	.word	0x20000558
 8002f58:	20000560 	.word	0x20000560

08002f5c <HAL_Init>:
 8002f5c:	2310      	movs	r3, #16
 8002f5e:	4a06      	ldr	r2, [pc, #24]	@ (8002f78 <HAL_Init+0x1c>)
 8002f60:	b510      	push	{r4, lr}
 8002f62:	6811      	ldr	r1, [r2, #0]
 8002f64:	2002      	movs	r0, #2
 8002f66:	430b      	orrs	r3, r1
 8002f68:	6013      	str	r3, [r2, #0]
 8002f6a:	f7ff ffd3 	bl	8002f14 <HAL_InitTick>
 8002f6e:	f7ff feb1 	bl	8002cd4 <HAL_MspInit>
 8002f72:	2000      	movs	r0, #0
 8002f74:	bd10      	pop	{r4, pc}
 8002f76:	46c0      	nop			@ (mov r8, r8)
 8002f78:	40022000 	.word	0x40022000

08002f7c <HAL_IncTick>:
 8002f7c:	4a03      	ldr	r2, [pc, #12]	@ (8002f8c <HAL_IncTick+0x10>)
 8002f7e:	4b04      	ldr	r3, [pc, #16]	@ (8002f90 <HAL_IncTick+0x14>)
 8002f80:	6811      	ldr	r1, [r2, #0]
 8002f82:	781b      	ldrb	r3, [r3, #0]
 8002f84:	185b      	adds	r3, r3, r1
 8002f86:	6013      	str	r3, [r2, #0]
 8002f88:	4770      	bx	lr
 8002f8a:	46c0      	nop			@ (mov r8, r8)
 8002f8c:	20000710 	.word	0x20000710
 8002f90:	2000055c 	.word	0x2000055c

08002f94 <HAL_GetTick>:
 8002f94:	4b01      	ldr	r3, [pc, #4]	@ (8002f9c <HAL_GetTick+0x8>)
 8002f96:	6818      	ldr	r0, [r3, #0]
 8002f98:	4770      	bx	lr
 8002f9a:	46c0      	nop			@ (mov r8, r8)
 8002f9c:	20000710 	.word	0x20000710

08002fa0 <HAL_Delay>:
 8002fa0:	b570      	push	{r4, r5, r6, lr}
 8002fa2:	0004      	movs	r4, r0
 8002fa4:	f7ff fff6 	bl	8002f94 <HAL_GetTick>
 8002fa8:	0005      	movs	r5, r0
 8002faa:	1c63      	adds	r3, r4, #1
 8002fac:	d002      	beq.n	8002fb4 <HAL_Delay+0x14>
 8002fae:	4b04      	ldr	r3, [pc, #16]	@ (8002fc0 <HAL_Delay+0x20>)
 8002fb0:	781b      	ldrb	r3, [r3, #0]
 8002fb2:	18e4      	adds	r4, r4, r3
 8002fb4:	f7ff ffee 	bl	8002f94 <HAL_GetTick>
 8002fb8:	1b40      	subs	r0, r0, r5
 8002fba:	42a0      	cmp	r0, r4
 8002fbc:	d3fa      	bcc.n	8002fb4 <HAL_Delay+0x14>
 8002fbe:	bd70      	pop	{r4, r5, r6, pc}
 8002fc0:	2000055c 	.word	0x2000055c

08002fc4 <HAL_NVIC_SetPriority>:
 8002fc4:	b510      	push	{r4, lr}
 8002fc6:	24ff      	movs	r4, #255	@ 0xff
 8002fc8:	2203      	movs	r2, #3
 8002fca:	000b      	movs	r3, r1
 8002fcc:	0021      	movs	r1, r4
 8002fce:	4002      	ands	r2, r0
 8002fd0:	00d2      	lsls	r2, r2, #3
 8002fd2:	4091      	lsls	r1, r2
 8002fd4:	019b      	lsls	r3, r3, #6
 8002fd6:	4023      	ands	r3, r4
 8002fd8:	43c9      	mvns	r1, r1
 8002fda:	4093      	lsls	r3, r2
 8002fdc:	2800      	cmp	r0, #0
 8002fde:	db0a      	blt.n	8002ff6 <HAL_NVIC_SetPriority+0x32>
 8002fe0:	24c0      	movs	r4, #192	@ 0xc0
 8002fe2:	4a0b      	ldr	r2, [pc, #44]	@ (8003010 <HAL_NVIC_SetPriority+0x4c>)
 8002fe4:	0880      	lsrs	r0, r0, #2
 8002fe6:	0080      	lsls	r0, r0, #2
 8002fe8:	1880      	adds	r0, r0, r2
 8002fea:	00a4      	lsls	r4, r4, #2
 8002fec:	5902      	ldr	r2, [r0, r4]
 8002fee:	400a      	ands	r2, r1
 8002ff0:	4313      	orrs	r3, r2
 8002ff2:	5103      	str	r3, [r0, r4]
 8002ff4:	bd10      	pop	{r4, pc}
 8002ff6:	220f      	movs	r2, #15
 8002ff8:	4010      	ands	r0, r2
 8002ffa:	3808      	subs	r0, #8
 8002ffc:	4a05      	ldr	r2, [pc, #20]	@ (8003014 <HAL_NVIC_SetPriority+0x50>)
 8002ffe:	0880      	lsrs	r0, r0, #2
 8003000:	0080      	lsls	r0, r0, #2
 8003002:	1880      	adds	r0, r0, r2
 8003004:	69c2      	ldr	r2, [r0, #28]
 8003006:	4011      	ands	r1, r2
 8003008:	4319      	orrs	r1, r3
 800300a:	61c1      	str	r1, [r0, #28]
 800300c:	e7f2      	b.n	8002ff4 <HAL_NVIC_SetPriority+0x30>
 800300e:	46c0      	nop			@ (mov r8, r8)
 8003010:	e000e100 	.word	0xe000e100
 8003014:	e000ed00 	.word	0xe000ed00

08003018 <HAL_SYSTICK_Config>:
 8003018:	2280      	movs	r2, #128	@ 0x80
 800301a:	1e43      	subs	r3, r0, #1
 800301c:	0452      	lsls	r2, r2, #17
 800301e:	2001      	movs	r0, #1
 8003020:	4293      	cmp	r3, r2
 8003022:	d20d      	bcs.n	8003040 <HAL_SYSTICK_Config+0x28>
 8003024:	21c0      	movs	r1, #192	@ 0xc0
 8003026:	4a07      	ldr	r2, [pc, #28]	@ (8003044 <HAL_SYSTICK_Config+0x2c>)
 8003028:	4807      	ldr	r0, [pc, #28]	@ (8003048 <HAL_SYSTICK_Config+0x30>)
 800302a:	6053      	str	r3, [r2, #4]
 800302c:	6a03      	ldr	r3, [r0, #32]
 800302e:	0609      	lsls	r1, r1, #24
 8003030:	021b      	lsls	r3, r3, #8
 8003032:	0a1b      	lsrs	r3, r3, #8
 8003034:	430b      	orrs	r3, r1
 8003036:	6203      	str	r3, [r0, #32]
 8003038:	2000      	movs	r0, #0
 800303a:	2307      	movs	r3, #7
 800303c:	6090      	str	r0, [r2, #8]
 800303e:	6013      	str	r3, [r2, #0]
 8003040:	4770      	bx	lr
 8003042:	46c0      	nop			@ (mov r8, r8)
 8003044:	e000e010 	.word	0xe000e010
 8003048:	e000ed00 	.word	0xe000ed00

0800304c <HAL_SYSTICK_Callback>:
 800304c:	4770      	bx	lr

0800304e <HAL_SYSTICK_IRQHandler>:
 800304e:	b510      	push	{r4, lr}
 8003050:	f7ff fffc 	bl	800304c <HAL_SYSTICK_Callback>
 8003054:	bd10      	pop	{r4, pc}
	...

08003058 <HAL_RCC_GetHCLKFreq>:
 8003058:	4b01      	ldr	r3, [pc, #4]	@ (8003060 <HAL_RCC_GetHCLKFreq+0x8>)
 800305a:	6818      	ldr	r0, [r3, #0]
 800305c:	4770      	bx	lr
 800305e:	46c0      	nop			@ (mov r8, r8)
 8003060:	20000558 	.word	0x20000558

08003064 <LL_ADC_Init>:
 8003064:	6882      	ldr	r2, [r0, #8]
 8003066:	0003      	movs	r3, r0
 8003068:	b530      	push	{r4, r5, lr}
 800306a:	2001      	movs	r0, #1
 800306c:	0014      	movs	r4, r2
 800306e:	4004      	ands	r4, r0
 8003070:	4202      	tst	r2, r0
 8003072:	d110      	bne.n	8003096 <LL_ADC_Init+0x32>
 8003074:	688d      	ldr	r5, [r1, #8]
 8003076:	684a      	ldr	r2, [r1, #4]
 8003078:	68d8      	ldr	r0, [r3, #12]
 800307a:	432a      	orrs	r2, r5
 800307c:	68cd      	ldr	r5, [r1, #12]
 800307e:	6809      	ldr	r1, [r1, #0]
 8003080:	432a      	orrs	r2, r5
 8003082:	4d05      	ldr	r5, [pc, #20]	@ (8003098 <LL_ADC_Init+0x34>)
 8003084:	4028      	ands	r0, r5
 8003086:	4302      	orrs	r2, r0
 8003088:	0020      	movs	r0, r4
 800308a:	60da      	str	r2, [r3, #12]
 800308c:	691a      	ldr	r2, [r3, #16]
 800308e:	0092      	lsls	r2, r2, #2
 8003090:	0892      	lsrs	r2, r2, #2
 8003092:	430a      	orrs	r2, r1
 8003094:	611a      	str	r2, [r3, #16]
 8003096:	bd30      	pop	{r4, r5, pc}
 8003098:	ffff3fc7 	.word	0xffff3fc7

0800309c <LL_ADC_REG_Init>:
 800309c:	6883      	ldr	r3, [r0, #8]
 800309e:	0002      	movs	r2, r0
 80030a0:	b530      	push	{r4, r5, lr}
 80030a2:	2001      	movs	r0, #1
 80030a4:	001c      	movs	r4, r3
 80030a6:	4004      	ands	r4, r0
 80030a8:	4203      	tst	r3, r0
 80030aa:	d10e      	bne.n	80030ca <LL_ADC_REG_Init+0x2e>
 80030ac:	684d      	ldr	r5, [r1, #4]
 80030ae:	680b      	ldr	r3, [r1, #0]
 80030b0:	68d0      	ldr	r0, [r2, #12]
 80030b2:	432b      	orrs	r3, r5
 80030b4:	688d      	ldr	r5, [r1, #8]
 80030b6:	432b      	orrs	r3, r5
 80030b8:	68cd      	ldr	r5, [r1, #12]
 80030ba:	6909      	ldr	r1, [r1, #16]
 80030bc:	432b      	orrs	r3, r5
 80030be:	430b      	orrs	r3, r1
 80030c0:	4902      	ldr	r1, [pc, #8]	@ (80030cc <LL_ADC_REG_Init+0x30>)
 80030c2:	4001      	ands	r1, r0
 80030c4:	0020      	movs	r0, r4
 80030c6:	430b      	orrs	r3, r1
 80030c8:	60d3      	str	r3, [r2, #12]
 80030ca:	bd30      	pop	{r4, r5, pc}
 80030cc:	fffec23c 	.word	0xfffec23c

080030d0 <LL_EXTI_Init>:
 80030d0:	7901      	ldrb	r1, [r0, #4]
 80030d2:	0002      	movs	r2, r0
 80030d4:	6803      	ldr	r3, [r0, #0]
 80030d6:	2900      	cmp	r1, #0
 80030d8:	d03c      	beq.n	8003154 <LL_EXTI_Init+0x84>
 80030da:	2b00      	cmp	r3, #0
 80030dc:	d101      	bne.n	80030e2 <LL_EXTI_Init+0x12>
 80030de:	2000      	movs	r0, #0
 80030e0:	4770      	bx	lr
 80030e2:	7941      	ldrb	r1, [r0, #5]
 80030e4:	2901      	cmp	r1, #1
 80030e6:	d01d      	beq.n	8003124 <LL_EXTI_Init+0x54>
 80030e8:	2902      	cmp	r1, #2
 80030ea:	d023      	beq.n	8003134 <LL_EXTI_Init+0x64>
 80030ec:	2001      	movs	r0, #1
 80030ee:	2900      	cmp	r1, #0
 80030f0:	d107      	bne.n	8003102 <LL_EXTI_Init+0x32>
 80030f2:	491d      	ldr	r1, [pc, #116]	@ (8003168 <LL_EXTI_Init+0x98>)
 80030f4:	6848      	ldr	r0, [r1, #4]
 80030f6:	4398      	bics	r0, r3
 80030f8:	6048      	str	r0, [r1, #4]
 80030fa:	6808      	ldr	r0, [r1, #0]
 80030fc:	4318      	orrs	r0, r3
 80030fe:	6008      	str	r0, [r1, #0]
 8003100:	2000      	movs	r0, #0
 8003102:	7992      	ldrb	r2, [r2, #6]
 8003104:	2a00      	cmp	r2, #0
 8003106:	d0eb      	beq.n	80030e0 <LL_EXTI_Init+0x10>
 8003108:	2a02      	cmp	r2, #2
 800310a:	d017      	beq.n	800313c <LL_EXTI_Init+0x6c>
 800310c:	2a03      	cmp	r2, #3
 800310e:	d01d      	beq.n	800314c <LL_EXTI_Init+0x7c>
 8003110:	2a01      	cmp	r2, #1
 8003112:	d127      	bne.n	8003164 <LL_EXTI_Init+0x94>
 8003114:	4a14      	ldr	r2, [pc, #80]	@ (8003168 <LL_EXTI_Init+0x98>)
 8003116:	68d1      	ldr	r1, [r2, #12]
 8003118:	4399      	bics	r1, r3
 800311a:	60d1      	str	r1, [r2, #12]
 800311c:	6891      	ldr	r1, [r2, #8]
 800311e:	430b      	orrs	r3, r1
 8003120:	6093      	str	r3, [r2, #8]
 8003122:	e7dd      	b.n	80030e0 <LL_EXTI_Init+0x10>
 8003124:	4910      	ldr	r1, [pc, #64]	@ (8003168 <LL_EXTI_Init+0x98>)
 8003126:	6808      	ldr	r0, [r1, #0]
 8003128:	4398      	bics	r0, r3
 800312a:	6008      	str	r0, [r1, #0]
 800312c:	6848      	ldr	r0, [r1, #4]
 800312e:	4318      	orrs	r0, r3
 8003130:	6048      	str	r0, [r1, #4]
 8003132:	e7e5      	b.n	8003100 <LL_EXTI_Init+0x30>
 8003134:	490c      	ldr	r1, [pc, #48]	@ (8003168 <LL_EXTI_Init+0x98>)
 8003136:	6808      	ldr	r0, [r1, #0]
 8003138:	4318      	orrs	r0, r3
 800313a:	e7f6      	b.n	800312a <LL_EXTI_Init+0x5a>
 800313c:	4a0a      	ldr	r2, [pc, #40]	@ (8003168 <LL_EXTI_Init+0x98>)
 800313e:	6891      	ldr	r1, [r2, #8]
 8003140:	4399      	bics	r1, r3
 8003142:	6091      	str	r1, [r2, #8]
 8003144:	68d1      	ldr	r1, [r2, #12]
 8003146:	430b      	orrs	r3, r1
 8003148:	60d3      	str	r3, [r2, #12]
 800314a:	e7c9      	b.n	80030e0 <LL_EXTI_Init+0x10>
 800314c:	4a06      	ldr	r2, [pc, #24]	@ (8003168 <LL_EXTI_Init+0x98>)
 800314e:	6891      	ldr	r1, [r2, #8]
 8003150:	4319      	orrs	r1, r3
 8003152:	e7f6      	b.n	8003142 <LL_EXTI_Init+0x72>
 8003154:	4a04      	ldr	r2, [pc, #16]	@ (8003168 <LL_EXTI_Init+0x98>)
 8003156:	6811      	ldr	r1, [r2, #0]
 8003158:	4399      	bics	r1, r3
 800315a:	6011      	str	r1, [r2, #0]
 800315c:	6851      	ldr	r1, [r2, #4]
 800315e:	4399      	bics	r1, r3
 8003160:	6051      	str	r1, [r2, #4]
 8003162:	e7bc      	b.n	80030de <LL_EXTI_Init+0xe>
 8003164:	2001      	movs	r0, #1
 8003166:	e7bb      	b.n	80030e0 <LL_EXTI_Init+0x10>
 8003168:	40010400 	.word	0x40010400

0800316c <LL_GPIO_Init>:
 800316c:	2300      	movs	r3, #0
 800316e:	b5f7      	push	{r0, r1, r2, r4, r5, r6, r7, lr}
 8003170:	680a      	ldr	r2, [r1, #0]
 8003172:	9300      	str	r3, [sp, #0]
 8003174:	0013      	movs	r3, r2
 8003176:	684e      	ldr	r6, [r1, #4]
 8003178:	9c00      	ldr	r4, [sp, #0]
 800317a:	1e77      	subs	r7, r6, #1
 800317c:	40e3      	lsrs	r3, r4
 800317e:	d109      	bne.n	8003194 <LL_GPIO_Init+0x28>
 8003180:	2f01      	cmp	r7, #1
 8003182:	d805      	bhi.n	8003190 <LL_GPIO_Init+0x24>
 8003184:	6843      	ldr	r3, [r0, #4]
 8003186:	68c9      	ldr	r1, [r1, #12]
 8003188:	4393      	bics	r3, r2
 800318a:	434a      	muls	r2, r1
 800318c:	4313      	orrs	r3, r2
 800318e:	6043      	str	r3, [r0, #4]
 8003190:	2000      	movs	r0, #0
 8003192:	bdfe      	pop	{r1, r2, r3, r4, r5, r6, r7, pc}
 8003194:	2401      	movs	r4, #1
 8003196:	9b00      	ldr	r3, [sp, #0]
 8003198:	409c      	lsls	r4, r3
 800319a:	0013      	movs	r3, r2
 800319c:	4023      	ands	r3, r4
 800319e:	4222      	tst	r2, r4
 80031a0:	d02a      	beq.n	80031f8 <LL_GPIO_Init+0x8c>
 80031a2:	001a      	movs	r2, r3
 80031a4:	2503      	movs	r5, #3
 80031a6:	435a      	muls	r2, r3
 80031a8:	4355      	muls	r5, r2
 80031aa:	46ac      	mov	ip, r5
 80031ac:	43ed      	mvns	r5, r5
 80031ae:	9501      	str	r5, [sp, #4]
 80031b0:	4665      	mov	r5, ip
 80031b2:	6804      	ldr	r4, [r0, #0]
 80031b4:	43ac      	bics	r4, r5
 80031b6:	0015      	movs	r5, r2
 80031b8:	4375      	muls	r5, r6
 80031ba:	432c      	orrs	r4, r5
 80031bc:	6004      	str	r4, [r0, #0]
 80031be:	2f01      	cmp	r7, #1
 80031c0:	d806      	bhi.n	80031d0 <LL_GPIO_Init+0x64>
 80031c2:	688c      	ldr	r4, [r1, #8]
 80031c4:	6887      	ldr	r7, [r0, #8]
 80031c6:	4354      	muls	r4, r2
 80031c8:	9d01      	ldr	r5, [sp, #4]
 80031ca:	402f      	ands	r7, r5
 80031cc:	433c      	orrs	r4, r7
 80031ce:	6084      	str	r4, [r0, #8]
 80031d0:	690c      	ldr	r4, [r1, #16]
 80031d2:	68c7      	ldr	r7, [r0, #12]
 80031d4:	4354      	muls	r4, r2
 80031d6:	9d01      	ldr	r5, [sp, #4]
 80031d8:	402f      	ands	r7, r5
 80031da:	433c      	orrs	r4, r7
 80031dc:	60c4      	str	r4, [r0, #12]
 80031de:	2e02      	cmp	r6, #2
 80031e0:	d10a      	bne.n	80031f8 <LL_GPIO_Init+0x8c>
 80031e2:	694c      	ldr	r4, [r1, #20]
 80031e4:	2bff      	cmp	r3, #255	@ 0xff
 80031e6:	d80a      	bhi.n	80031fe <LL_GPIO_Init+0x92>
 80031e8:	4352      	muls	r2, r2
 80031ea:	360d      	adds	r6, #13
 80031ec:	4356      	muls	r6, r2
 80031ee:	4362      	muls	r2, r4
 80031f0:	6a03      	ldr	r3, [r0, #32]
 80031f2:	43b3      	bics	r3, r6
 80031f4:	431a      	orrs	r2, r3
 80031f6:	6202      	str	r2, [r0, #32]
 80031f8:	9b00      	ldr	r3, [sp, #0]
 80031fa:	3301      	adds	r3, #1
 80031fc:	e7b8      	b.n	8003170 <LL_GPIO_Init+0x4>
 80031fe:	260f      	movs	r6, #15
 8003200:	0a1b      	lsrs	r3, r3, #8
 8003202:	435b      	muls	r3, r3
 8003204:	435b      	muls	r3, r3
 8003206:	435e      	muls	r6, r3
 8003208:	435c      	muls	r4, r3
 800320a:	6a42      	ldr	r2, [r0, #36]	@ 0x24
 800320c:	43b2      	bics	r2, r6
 800320e:	4322      	orrs	r2, r4
 8003210:	6242      	str	r2, [r0, #36]	@ 0x24
 8003212:	e7f1      	b.n	80031f8 <LL_GPIO_Init+0x8c>

08003214 <RCC_GetHCLKClockFreq>:
 8003214:	4b03      	ldr	r3, [pc, #12]	@ (8003224 <RCC_GetHCLKClockFreq+0x10>)
 8003216:	4a04      	ldr	r2, [pc, #16]	@ (8003228 <RCC_GetHCLKClockFreq+0x14>)
 8003218:	685b      	ldr	r3, [r3, #4]
 800321a:	061b      	lsls	r3, r3, #24
 800321c:	0f1b      	lsrs	r3, r3, #28
 800321e:	5cd3      	ldrb	r3, [r2, r3]
 8003220:	40d8      	lsrs	r0, r3
 8003222:	4770      	bx	lr
 8003224:	40021000 	.word	0x40021000
 8003228:	08005274 	.word	0x08005274

0800322c <RCC_GetPCLK1ClockFreq>:
 800322c:	4b03      	ldr	r3, [pc, #12]	@ (800323c <RCC_GetPCLK1ClockFreq+0x10>)
 800322e:	4a04      	ldr	r2, [pc, #16]	@ (8003240 <RCC_GetPCLK1ClockFreq+0x14>)
 8003230:	685b      	ldr	r3, [r3, #4]
 8003232:	055b      	lsls	r3, r3, #21
 8003234:	0f5b      	lsrs	r3, r3, #29
 8003236:	5cd3      	ldrb	r3, [r2, r3]
 8003238:	40d8      	lsrs	r0, r3
 800323a:	4770      	bx	lr
 800323c:	40021000 	.word	0x40021000
 8003240:	0800526c 	.word	0x0800526c

08003244 <RCC_PLL_GetFreqDomain_SYS>:
 8003244:	b570      	push	{r4, r5, r6, lr}
 8003246:	250f      	movs	r5, #15
 8003248:	4b08      	ldr	r3, [pc, #32]	@ (800326c <RCC_PLL_GetFreqDomain_SYS+0x28>)
 800324a:	4a09      	ldr	r2, [pc, #36]	@ (8003270 <RCC_PLL_GetFreqDomain_SYS+0x2c>)
 800324c:	6858      	ldr	r0, [r3, #4]
 800324e:	6ad9      	ldr	r1, [r3, #44]	@ 0x2c
 8003250:	03c0      	lsls	r0, r0, #15
 8003252:	17c0      	asrs	r0, r0, #31
 8003254:	4010      	ands	r0, r2
 8003256:	4029      	ands	r1, r5
 8003258:	1880      	adds	r0, r0, r2
 800325a:	3101      	adds	r1, #1
 800325c:	685c      	ldr	r4, [r3, #4]
 800325e:	f7fc ff67 	bl	8000130 <__udivsi3>
 8003262:	0ca4      	lsrs	r4, r4, #18
 8003264:	402c      	ands	r4, r5
 8003266:	3402      	adds	r4, #2
 8003268:	4360      	muls	r0, r4
 800326a:	bd70      	pop	{r4, r5, r6, pc}
 800326c:	40021000 	.word	0x40021000
 8003270:	003d0900 	.word	0x003d0900

08003274 <RCC_GetSystemClockFreq>:
 8003274:	220c      	movs	r2, #12
 8003276:	4b05      	ldr	r3, [pc, #20]	@ (800328c <RCC_GetSystemClockFreq+0x18>)
 8003278:	b510      	push	{r4, lr}
 800327a:	685b      	ldr	r3, [r3, #4]
 800327c:	4013      	ands	r3, r2
 800327e:	2b08      	cmp	r3, #8
 8003280:	d102      	bne.n	8003288 <RCC_GetSystemClockFreq+0x14>
 8003282:	f7ff ffdf 	bl	8003244 <RCC_PLL_GetFreqDomain_SYS>
 8003286:	bd10      	pop	{r4, pc}
 8003288:	4801      	ldr	r0, [pc, #4]	@ (8003290 <RCC_GetSystemClockFreq+0x1c>)
 800328a:	e7fc      	b.n	8003286 <RCC_GetSystemClockFreq+0x12>
 800328c:	40021000 	.word	0x40021000
 8003290:	007a1200 	.word	0x007a1200

08003294 <LL_RCC_GetUSARTClockFreq>:
 8003294:	0003      	movs	r3, r0
 8003296:	2000      	movs	r0, #0
 8003298:	b510      	push	{r4, lr}
 800329a:	4283      	cmp	r3, r0
 800329c:	d10b      	bne.n	80032b6 <LL_RCC_GetUSARTClockFreq+0x22>
 800329e:	2103      	movs	r1, #3
 80032a0:	4a0f      	ldr	r2, [pc, #60]	@ (80032e0 <LL_RCC_GetUSARTClockFreq+0x4c>)
 80032a2:	6b13      	ldr	r3, [r2, #48]	@ 0x30
 80032a4:	400b      	ands	r3, r1
 80032a6:	2b02      	cmp	r3, #2
 80032a8:	d00e      	beq.n	80032c8 <LL_RCC_GetUSARTClockFreq+0x34>
 80032aa:	428b      	cmp	r3, r1
 80032ac:	d004      	beq.n	80032b8 <LL_RCC_GetUSARTClockFreq+0x24>
 80032ae:	2b01      	cmp	r3, #1
 80032b0:	d10f      	bne.n	80032d2 <LL_RCC_GetUSARTClockFreq+0x3e>
 80032b2:	f7ff ffdf 	bl	8003274 <RCC_GetSystemClockFreq>
 80032b6:	bd10      	pop	{r4, pc}
 80032b8:	6812      	ldr	r2, [r2, #0]
 80032ba:	2302      	movs	r3, #2
 80032bc:	0010      	movs	r0, r2
 80032be:	4018      	ands	r0, r3
 80032c0:	421a      	tst	r2, r3
 80032c2:	d0f8      	beq.n	80032b6 <LL_RCC_GetUSARTClockFreq+0x22>
 80032c4:	4807      	ldr	r0, [pc, #28]	@ (80032e4 <LL_RCC_GetUSARTClockFreq+0x50>)
 80032c6:	e7f6      	b.n	80032b6 <LL_RCC_GetUSARTClockFreq+0x22>
 80032c8:	6a10      	ldr	r0, [r2, #32]
 80032ca:	0780      	lsls	r0, r0, #30
 80032cc:	0fc0      	lsrs	r0, r0, #31
 80032ce:	03c0      	lsls	r0, r0, #15
 80032d0:	e7f1      	b.n	80032b6 <LL_RCC_GetUSARTClockFreq+0x22>
 80032d2:	f7ff ffcf 	bl	8003274 <RCC_GetSystemClockFreq>
 80032d6:	f7ff ff9d 	bl	8003214 <RCC_GetHCLKClockFreq>
 80032da:	f7ff ffa7 	bl	800322c <RCC_GetPCLK1ClockFreq>
 80032de:	e7ea      	b.n	80032b6 <LL_RCC_GetUSARTClockFreq+0x22>
 80032e0:	40021000 	.word	0x40021000
 80032e4:	007a1200 	.word	0x007a1200

080032e8 <LL_TIM_Init>:
 80032e8:	b510      	push	{r4, lr}
 80032ea:	4c1d      	ldr	r4, [pc, #116]	@ (8003360 <LL_TIM_Init+0x78>)
 80032ec:	6803      	ldr	r3, [r0, #0]
 80032ee:	42a0      	cmp	r0, r4
 80032f0:	d006      	beq.n	8003300 <LL_TIM_Init+0x18>
 80032f2:	2280      	movs	r2, #128	@ 0x80
 80032f4:	05d2      	lsls	r2, r2, #23
 80032f6:	4290      	cmp	r0, r2
 80032f8:	d002      	beq.n	8003300 <LL_TIM_Init+0x18>
 80032fa:	4a1a      	ldr	r2, [pc, #104]	@ (8003364 <LL_TIM_Init+0x7c>)
 80032fc:	4290      	cmp	r0, r2
 80032fe:	d10c      	bne.n	800331a <LL_TIM_Init+0x32>
 8003300:	2270      	movs	r2, #112	@ 0x70
 8003302:	4393      	bics	r3, r2
 8003304:	684a      	ldr	r2, [r1, #4]
 8003306:	4313      	orrs	r3, r2
 8003308:	42a0      	cmp	r0, r4
 800330a:	d00f      	beq.n	800332c <LL_TIM_Init+0x44>
 800330c:	2280      	movs	r2, #128	@ 0x80
 800330e:	05d2      	lsls	r2, r2, #23
 8003310:	4290      	cmp	r0, r2
 8003312:	d00b      	beq.n	800332c <LL_TIM_Init+0x44>
 8003314:	4a13      	ldr	r2, [pc, #76]	@ (8003364 <LL_TIM_Init+0x7c>)
 8003316:	4290      	cmp	r0, r2
 8003318:	d008      	beq.n	800332c <LL_TIM_Init+0x44>
 800331a:	4a13      	ldr	r2, [pc, #76]	@ (8003368 <LL_TIM_Init+0x80>)
 800331c:	4290      	cmp	r0, r2
 800331e:	d005      	beq.n	800332c <LL_TIM_Init+0x44>
 8003320:	4a12      	ldr	r2, [pc, #72]	@ (800336c <LL_TIM_Init+0x84>)
 8003322:	4290      	cmp	r0, r2
 8003324:	d002      	beq.n	800332c <LL_TIM_Init+0x44>
 8003326:	4a12      	ldr	r2, [pc, #72]	@ (8003370 <LL_TIM_Init+0x88>)
 8003328:	4290      	cmp	r0, r2
 800332a:	d103      	bne.n	8003334 <LL_TIM_Init+0x4c>
 800332c:	4a11      	ldr	r2, [pc, #68]	@ (8003374 <LL_TIM_Init+0x8c>)
 800332e:	401a      	ands	r2, r3
 8003330:	68cb      	ldr	r3, [r1, #12]
 8003332:	4313      	orrs	r3, r2
 8003334:	6003      	str	r3, [r0, #0]
 8003336:	688b      	ldr	r3, [r1, #8]
 8003338:	62c3      	str	r3, [r0, #44]	@ 0x2c
 800333a:	880b      	ldrh	r3, [r1, #0]
 800333c:	6283      	str	r3, [r0, #40]	@ 0x28
 800333e:	42a0      	cmp	r0, r4
 8003340:	d005      	beq.n	800334e <LL_TIM_Init+0x66>
 8003342:	4b0a      	ldr	r3, [pc, #40]	@ (800336c <LL_TIM_Init+0x84>)
 8003344:	4298      	cmp	r0, r3
 8003346:	d002      	beq.n	800334e <LL_TIM_Init+0x66>
 8003348:	4b09      	ldr	r3, [pc, #36]	@ (8003370 <LL_TIM_Init+0x88>)
 800334a:	4298      	cmp	r0, r3
 800334c:	d101      	bne.n	8003352 <LL_TIM_Init+0x6a>
 800334e:	7c0b      	ldrb	r3, [r1, #16]
 8003350:	6303      	str	r3, [r0, #48]	@ 0x30
 8003352:	2301      	movs	r3, #1
 8003354:	6942      	ldr	r2, [r0, #20]
 8003356:	4313      	orrs	r3, r2
 8003358:	6143      	str	r3, [r0, #20]
 800335a:	2000      	movs	r0, #0
 800335c:	bd10      	pop	{r4, pc}
 800335e:	46c0      	nop			@ (mov r8, r8)
 8003360:	40012c00 	.word	0x40012c00
 8003364:	40000400 	.word	0x40000400
 8003368:	40002000 	.word	0x40002000
 800336c:	40014400 	.word	0x40014400
 8003370:	40014800 	.word	0x40014800
 8003374:	fffffcff 	.word	0xfffffcff

08003378 <LL_TIM_OC_Init>:
 8003378:	2380      	movs	r3, #128	@ 0x80
 800337a:	b570      	push	{r4, r5, r6, lr}
 800337c:	005b      	lsls	r3, r3, #1
 800337e:	4299      	cmp	r1, r3
 8003380:	d100      	bne.n	8003384 <LL_TIM_OC_Init+0xc>
 8003382:	e09e      	b.n	80034c2 <LL_TIM_OC_Init+0x14a>
 8003384:	d805      	bhi.n	8003392 <LL_TIM_OC_Init+0x1a>
 8003386:	2901      	cmp	r1, #1
 8003388:	d02f      	beq.n	80033ea <LL_TIM_OC_Init+0x72>
 800338a:	2910      	cmp	r1, #16
 800338c:	d061      	beq.n	8003452 <LL_TIM_OC_Init+0xda>
 800338e:	2001      	movs	r0, #1
 8003390:	bd70      	pop	{r4, r5, r6, pc}
 8003392:	2380      	movs	r3, #128	@ 0x80
 8003394:	015b      	lsls	r3, r3, #5
 8003396:	4299      	cmp	r1, r3
 8003398:	d1f9      	bne.n	800338e <LL_TIM_OC_Init+0x16>
 800339a:	6a03      	ldr	r3, [r0, #32]
 800339c:	4e64      	ldr	r6, [pc, #400]	@ (8003530 <LL_TIM_OC_Init+0x1b8>)
 800339e:	4c65      	ldr	r4, [pc, #404]	@ (8003534 <LL_TIM_OC_Init+0x1bc>)
 80033a0:	4033      	ands	r3, r6
 80033a2:	6203      	str	r3, [r0, #32]
 80033a4:	6a05      	ldr	r5, [r0, #32]
 80033a6:	6841      	ldr	r1, [r0, #4]
 80033a8:	69c3      	ldr	r3, [r0, #28]
 80033aa:	4023      	ands	r3, r4
 80033ac:	6814      	ldr	r4, [r2, #0]
 80033ae:	0224      	lsls	r4, r4, #8
 80033b0:	431c      	orrs	r4, r3
 80033b2:	4b61      	ldr	r3, [pc, #388]	@ (8003538 <LL_TIM_OC_Init+0x1c0>)
 80033b4:	401d      	ands	r5, r3
 80033b6:	6913      	ldr	r3, [r2, #16]
 80033b8:	031b      	lsls	r3, r3, #12
 80033ba:	432b      	orrs	r3, r5
 80033bc:	6855      	ldr	r5, [r2, #4]
 80033be:	4033      	ands	r3, r6
 80033c0:	032d      	lsls	r5, r5, #12
 80033c2:	432b      	orrs	r3, r5
 80033c4:	4d5d      	ldr	r5, [pc, #372]	@ (800353c <LL_TIM_OC_Init+0x1c4>)
 80033c6:	42a8      	cmp	r0, r5
 80033c8:	d005      	beq.n	80033d6 <LL_TIM_OC_Init+0x5e>
 80033ca:	4d5d      	ldr	r5, [pc, #372]	@ (8003540 <LL_TIM_OC_Init+0x1c8>)
 80033cc:	42a8      	cmp	r0, r5
 80033ce:	d002      	beq.n	80033d6 <LL_TIM_OC_Init+0x5e>
 80033d0:	4d5c      	ldr	r5, [pc, #368]	@ (8003544 <LL_TIM_OC_Init+0x1cc>)
 80033d2:	42a8      	cmp	r0, r5
 80033d4:	d104      	bne.n	80033e0 <LL_TIM_OC_Init+0x68>
 80033d6:	4d5c      	ldr	r5, [pc, #368]	@ (8003548 <LL_TIM_OC_Init+0x1d0>)
 80033d8:	400d      	ands	r5, r1
 80033da:	6991      	ldr	r1, [r2, #24]
 80033dc:	0189      	lsls	r1, r1, #6
 80033de:	4329      	orrs	r1, r5
 80033e0:	68d2      	ldr	r2, [r2, #12]
 80033e2:	6041      	str	r1, [r0, #4]
 80033e4:	61c4      	str	r4, [r0, #28]
 80033e6:	6402      	str	r2, [r0, #64]	@ 0x40
 80033e8:	e030      	b.n	800344c <LL_TIM_OC_Init+0xd4>
 80033ea:	2673      	movs	r6, #115	@ 0x73
 80033ec:	6a03      	ldr	r3, [r0, #32]
 80033ee:	438b      	bics	r3, r1
 80033f0:	6203      	str	r3, [r0, #32]
 80033f2:	6a03      	ldr	r3, [r0, #32]
 80033f4:	6844      	ldr	r4, [r0, #4]
 80033f6:	6985      	ldr	r5, [r0, #24]
 80033f8:	43b5      	bics	r5, r6
 80033fa:	6816      	ldr	r6, [r2, #0]
 80033fc:	4335      	orrs	r5, r6
 80033fe:	2602      	movs	r6, #2
 8003400:	43b3      	bics	r3, r6
 8003402:	6916      	ldr	r6, [r2, #16]
 8003404:	4333      	orrs	r3, r6
 8003406:	438b      	bics	r3, r1
 8003408:	6851      	ldr	r1, [r2, #4]
 800340a:	430b      	orrs	r3, r1
 800340c:	494b      	ldr	r1, [pc, #300]	@ (800353c <LL_TIM_OC_Init+0x1c4>)
 800340e:	4288      	cmp	r0, r1
 8003410:	d005      	beq.n	800341e <LL_TIM_OC_Init+0xa6>
 8003412:	494b      	ldr	r1, [pc, #300]	@ (8003540 <LL_TIM_OC_Init+0x1c8>)
 8003414:	4288      	cmp	r0, r1
 8003416:	d002      	beq.n	800341e <LL_TIM_OC_Init+0xa6>
 8003418:	494a      	ldr	r1, [pc, #296]	@ (8003544 <LL_TIM_OC_Init+0x1cc>)
 800341a:	4288      	cmp	r0, r1
 800341c:	d112      	bne.n	8003444 <LL_TIM_OC_Init+0xcc>
 800341e:	2108      	movs	r1, #8
 8003420:	438b      	bics	r3, r1
 8003422:	6951      	ldr	r1, [r2, #20]
 8003424:	0089      	lsls	r1, r1, #2
 8003426:	4319      	orrs	r1, r3
 8003428:	2304      	movs	r3, #4
 800342a:	4399      	bics	r1, r3
 800342c:	6893      	ldr	r3, [r2, #8]
 800342e:	009b      	lsls	r3, r3, #2
 8003430:	430b      	orrs	r3, r1
 8003432:	4946      	ldr	r1, [pc, #280]	@ (800354c <LL_TIM_OC_Init+0x1d4>)
 8003434:	4021      	ands	r1, r4
 8003436:	6994      	ldr	r4, [r2, #24]
 8003438:	4321      	orrs	r1, r4
 800343a:	4c45      	ldr	r4, [pc, #276]	@ (8003550 <LL_TIM_OC_Init+0x1d8>)
 800343c:	4021      	ands	r1, r4
 800343e:	69d4      	ldr	r4, [r2, #28]
 8003440:	0064      	lsls	r4, r4, #1
 8003442:	430c      	orrs	r4, r1
 8003444:	68d2      	ldr	r2, [r2, #12]
 8003446:	6044      	str	r4, [r0, #4]
 8003448:	6185      	str	r5, [r0, #24]
 800344a:	6342      	str	r2, [r0, #52]	@ 0x34
 800344c:	6203      	str	r3, [r0, #32]
 800344e:	2000      	movs	r0, #0
 8003450:	e79e      	b.n	8003390 <LL_TIM_OC_Init+0x18>
 8003452:	6a03      	ldr	r3, [r0, #32]
 8003454:	4c37      	ldr	r4, [pc, #220]	@ (8003534 <LL_TIM_OC_Init+0x1bc>)
 8003456:	438b      	bics	r3, r1
 8003458:	6203      	str	r3, [r0, #32]
 800345a:	6a06      	ldr	r6, [r0, #32]
 800345c:	6843      	ldr	r3, [r0, #4]
 800345e:	6985      	ldr	r5, [r0, #24]
 8003460:	4025      	ands	r5, r4
 8003462:	6814      	ldr	r4, [r2, #0]
 8003464:	0224      	lsls	r4, r4, #8
 8003466:	432c      	orrs	r4, r5
 8003468:	2520      	movs	r5, #32
 800346a:	43ae      	bics	r6, r5
 800346c:	6915      	ldr	r5, [r2, #16]
 800346e:	012d      	lsls	r5, r5, #4
 8003470:	4335      	orrs	r5, r6
 8003472:	438d      	bics	r5, r1
 8003474:	0029      	movs	r1, r5
 8003476:	6855      	ldr	r5, [r2, #4]
 8003478:	012d      	lsls	r5, r5, #4
 800347a:	430d      	orrs	r5, r1
 800347c:	492f      	ldr	r1, [pc, #188]	@ (800353c <LL_TIM_OC_Init+0x1c4>)
 800347e:	4288      	cmp	r0, r1
 8003480:	d005      	beq.n	800348e <LL_TIM_OC_Init+0x116>
 8003482:	492f      	ldr	r1, [pc, #188]	@ (8003540 <LL_TIM_OC_Init+0x1c8>)
 8003484:	4288      	cmp	r0, r1
 8003486:	d002      	beq.n	800348e <LL_TIM_OC_Init+0x116>
 8003488:	492e      	ldr	r1, [pc, #184]	@ (8003544 <LL_TIM_OC_Init+0x1cc>)
 800348a:	4288      	cmp	r0, r1
 800348c:	d113      	bne.n	80034b6 <LL_TIM_OC_Init+0x13e>
 800348e:	2180      	movs	r1, #128	@ 0x80
 8003490:	438d      	bics	r5, r1
 8003492:	6951      	ldr	r1, [r2, #20]
 8003494:	0189      	lsls	r1, r1, #6
 8003496:	4329      	orrs	r1, r5
 8003498:	2540      	movs	r5, #64	@ 0x40
 800349a:	43a9      	bics	r1, r5
 800349c:	6895      	ldr	r5, [r2, #8]
 800349e:	01ad      	lsls	r5, r5, #6
 80034a0:	430d      	orrs	r5, r1
 80034a2:	492c      	ldr	r1, [pc, #176]	@ (8003554 <LL_TIM_OC_Init+0x1dc>)
 80034a4:	400b      	ands	r3, r1
 80034a6:	6991      	ldr	r1, [r2, #24]
 80034a8:	0089      	lsls	r1, r1, #2
 80034aa:	4319      	orrs	r1, r3
 80034ac:	4b2a      	ldr	r3, [pc, #168]	@ (8003558 <LL_TIM_OC_Init+0x1e0>)
 80034ae:	4019      	ands	r1, r3
 80034b0:	69d3      	ldr	r3, [r2, #28]
 80034b2:	00db      	lsls	r3, r3, #3
 80034b4:	430b      	orrs	r3, r1
 80034b6:	6043      	str	r3, [r0, #4]
 80034b8:	68d3      	ldr	r3, [r2, #12]
 80034ba:	6184      	str	r4, [r0, #24]
 80034bc:	6383      	str	r3, [r0, #56]	@ 0x38
 80034be:	6205      	str	r5, [r0, #32]
 80034c0:	e7c5      	b.n	800344e <LL_TIM_OC_Init+0xd6>
 80034c2:	2173      	movs	r1, #115	@ 0x73
 80034c4:	6a03      	ldr	r3, [r0, #32]
 80034c6:	4e21      	ldr	r6, [pc, #132]	@ (800354c <LL_TIM_OC_Init+0x1d4>)
 80034c8:	4033      	ands	r3, r6
 80034ca:	6203      	str	r3, [r0, #32]
 80034cc:	6a05      	ldr	r5, [r0, #32]
 80034ce:	6843      	ldr	r3, [r0, #4]
 80034d0:	69c4      	ldr	r4, [r0, #28]
 80034d2:	438c      	bics	r4, r1
 80034d4:	6811      	ldr	r1, [r2, #0]
 80034d6:	430c      	orrs	r4, r1
 80034d8:	491d      	ldr	r1, [pc, #116]	@ (8003550 <LL_TIM_OC_Init+0x1d8>)
 80034da:	400d      	ands	r5, r1
 80034dc:	6911      	ldr	r1, [r2, #16]
 80034de:	0209      	lsls	r1, r1, #8
 80034e0:	4329      	orrs	r1, r5
 80034e2:	6855      	ldr	r5, [r2, #4]
 80034e4:	4031      	ands	r1, r6
 80034e6:	022d      	lsls	r5, r5, #8
 80034e8:	430d      	orrs	r5, r1
 80034ea:	4914      	ldr	r1, [pc, #80]	@ (800353c <LL_TIM_OC_Init+0x1c4>)
 80034ec:	4288      	cmp	r0, r1
 80034ee:	d005      	beq.n	80034fc <LL_TIM_OC_Init+0x184>
 80034f0:	4913      	ldr	r1, [pc, #76]	@ (8003540 <LL_TIM_OC_Init+0x1c8>)
 80034f2:	4288      	cmp	r0, r1
 80034f4:	d002      	beq.n	80034fc <LL_TIM_OC_Init+0x184>
 80034f6:	4913      	ldr	r1, [pc, #76]	@ (8003544 <LL_TIM_OC_Init+0x1cc>)
 80034f8:	4288      	cmp	r0, r1
 80034fa:	d113      	bne.n	8003524 <LL_TIM_OC_Init+0x1ac>
 80034fc:	4916      	ldr	r1, [pc, #88]	@ (8003558 <LL_TIM_OC_Init+0x1e0>)
 80034fe:	400d      	ands	r5, r1
 8003500:	6951      	ldr	r1, [r2, #20]
 8003502:	0289      	lsls	r1, r1, #10
 8003504:	4329      	orrs	r1, r5
 8003506:	4d13      	ldr	r5, [pc, #76]	@ (8003554 <LL_TIM_OC_Init+0x1dc>)
 8003508:	4029      	ands	r1, r5
 800350a:	6895      	ldr	r5, [r2, #8]
 800350c:	02ad      	lsls	r5, r5, #10
 800350e:	430d      	orrs	r5, r1
 8003510:	4907      	ldr	r1, [pc, #28]	@ (8003530 <LL_TIM_OC_Init+0x1b8>)
 8003512:	400b      	ands	r3, r1
 8003514:	6991      	ldr	r1, [r2, #24]
 8003516:	0109      	lsls	r1, r1, #4
 8003518:	4319      	orrs	r1, r3
 800351a:	4b07      	ldr	r3, [pc, #28]	@ (8003538 <LL_TIM_OC_Init+0x1c0>)
 800351c:	4019      	ands	r1, r3
 800351e:	69d3      	ldr	r3, [r2, #28]
 8003520:	015b      	lsls	r3, r3, #5
 8003522:	430b      	orrs	r3, r1
 8003524:	6043      	str	r3, [r0, #4]
 8003526:	68d3      	ldr	r3, [r2, #12]
 8003528:	61c4      	str	r4, [r0, #28]
 800352a:	63c3      	str	r3, [r0, #60]	@ 0x3c
 800352c:	e7c7      	b.n	80034be <LL_TIM_OC_Init+0x146>
 800352e:	46c0      	nop			@ (mov r8, r8)
 8003530:	ffffefff 	.word	0xffffefff
 8003534:	ffff8cff 	.word	0xffff8cff
 8003538:	ffffdfff 	.word	0xffffdfff
 800353c:	40012c00 	.word	0x40012c00
 8003540:	40014400 	.word	0x40014400
 8003544:	40014800 	.word	0x40014800
 8003548:	ffffbfff 	.word	0xffffbfff
 800354c:	fffffeff 	.word	0xfffffeff
 8003550:	fffffdff 	.word	0xfffffdff
 8003554:	fffffbff 	.word	0xfffffbff
 8003558:	fffff7ff 	.word	0xfffff7ff

0800355c <LL_TIM_BDTR_Init>:
 800355c:	688a      	ldr	r2, [r1, #8]
 800355e:	7b0b      	ldrb	r3, [r1, #12]
 8003560:	4313      	orrs	r3, r2
 8003562:	4a0b      	ldr	r2, [pc, #44]	@ (8003590 <LL_TIM_BDTR_Init+0x34>)
 8003564:	4013      	ands	r3, r2
 8003566:	684a      	ldr	r2, [r1, #4]
 8003568:	4313      	orrs	r3, r2
 800356a:	4a0a      	ldr	r2, [pc, #40]	@ (8003594 <LL_TIM_BDTR_Init+0x38>)
 800356c:	4013      	ands	r3, r2
 800356e:	680a      	ldr	r2, [r1, #0]
 8003570:	4313      	orrs	r3, r2
 8003572:	4a09      	ldr	r2, [pc, #36]	@ (8003598 <LL_TIM_BDTR_Init+0x3c>)
 8003574:	4013      	ands	r3, r2
 8003576:	89ca      	ldrh	r2, [r1, #14]
 8003578:	4313      	orrs	r3, r2
 800357a:	4a08      	ldr	r2, [pc, #32]	@ (800359c <LL_TIM_BDTR_Init+0x40>)
 800357c:	4013      	ands	r3, r2
 800357e:	690a      	ldr	r2, [r1, #16]
 8003580:	4313      	orrs	r3, r2
 8003582:	4a07      	ldr	r2, [pc, #28]	@ (80035a0 <LL_TIM_BDTR_Init+0x44>)
 8003584:	4013      	ands	r3, r2
 8003586:	694a      	ldr	r2, [r1, #20]
 8003588:	4313      	orrs	r3, r2
 800358a:	6443      	str	r3, [r0, #68]	@ 0x44
 800358c:	2000      	movs	r0, #0
 800358e:	4770      	bx	lr
 8003590:	fffffbff 	.word	0xfffffbff
 8003594:	fffff7ff 	.word	0xfffff7ff
 8003598:	ffffefff 	.word	0xffffefff
 800359c:	ffffdfff 	.word	0xffffdfff
 80035a0:	ffff3fff 	.word	0xffff3fff

080035a4 <LL_USART_Init>:
 80035a4:	6802      	ldr	r2, [r0, #0]
 80035a6:	b570      	push	{r4, r5, r6, lr}
 80035a8:	2301      	movs	r3, #1
 80035aa:	0004      	movs	r4, r0
 80035ac:	0010      	movs	r0, r2
 80035ae:	000d      	movs	r5, r1
 80035b0:	4018      	ands	r0, r3
 80035b2:	421a      	tst	r2, r3
 80035b4:	d001      	beq.n	80035ba <LL_USART_Init+0x16>
 80035b6:	2001      	movs	r0, #1
 80035b8:	bd70      	pop	{r4, r5, r6, pc}
 80035ba:	684b      	ldr	r3, [r1, #4]
 80035bc:	68c9      	ldr	r1, [r1, #12]
 80035be:	6822      	ldr	r2, [r4, #0]
 80035c0:	430b      	orrs	r3, r1
 80035c2:	6929      	ldr	r1, [r5, #16]
 80035c4:	430b      	orrs	r3, r1
 80035c6:	69a9      	ldr	r1, [r5, #24]
 80035c8:	430b      	orrs	r3, r1
 80035ca:	4918      	ldr	r1, [pc, #96]	@ (800362c <LL_USART_Init+0x88>)
 80035cc:	400a      	ands	r2, r1
 80035ce:	4313      	orrs	r3, r2
 80035d0:	6023      	str	r3, [r4, #0]
 80035d2:	6863      	ldr	r3, [r4, #4]
 80035d4:	4a16      	ldr	r2, [pc, #88]	@ (8003630 <LL_USART_Init+0x8c>)
 80035d6:	4013      	ands	r3, r2
 80035d8:	68aa      	ldr	r2, [r5, #8]
 80035da:	4313      	orrs	r3, r2
 80035dc:	6063      	str	r3, [r4, #4]
 80035de:	68a3      	ldr	r3, [r4, #8]
 80035e0:	4a14      	ldr	r2, [pc, #80]	@ (8003634 <LL_USART_Init+0x90>)
 80035e2:	4013      	ands	r3, r2
 80035e4:	696a      	ldr	r2, [r5, #20]
 80035e6:	4313      	orrs	r3, r2
 80035e8:	60a3      	str	r3, [r4, #8]
 80035ea:	4b13      	ldr	r3, [pc, #76]	@ (8003638 <LL_USART_Init+0x94>)
 80035ec:	429c      	cmp	r4, r3
 80035ee:	d1e2      	bne.n	80035b6 <LL_USART_Init+0x12>
 80035f0:	f7ff fe50 	bl	8003294 <LL_RCC_GetUSARTClockFreq>
 80035f4:	2800      	cmp	r0, #0
 80035f6:	d0de      	beq.n	80035b6 <LL_USART_Init+0x12>
 80035f8:	6829      	ldr	r1, [r5, #0]
 80035fa:	2900      	cmp	r1, #0
 80035fc:	d0db      	beq.n	80035b6 <LL_USART_Init+0x12>
 80035fe:	2280      	movs	r2, #128	@ 0x80
 8003600:	69ad      	ldr	r5, [r5, #24]
 8003602:	084b      	lsrs	r3, r1, #1
 8003604:	0212      	lsls	r2, r2, #8
 8003606:	4295      	cmp	r5, r2
 8003608:	d10b      	bne.n	8003622 <LL_USART_Init+0x7e>
 800360a:	0040      	lsls	r0, r0, #1
 800360c:	18c0      	adds	r0, r0, r3
 800360e:	f7fc fd8f 	bl	8000130 <__udivsi3>
 8003612:	4b0a      	ldr	r3, [pc, #40]	@ (800363c <LL_USART_Init+0x98>)
 8003614:	4003      	ands	r3, r0
 8003616:	0700      	lsls	r0, r0, #28
 8003618:	0f40      	lsrs	r0, r0, #29
 800361a:	4318      	orrs	r0, r3
 800361c:	60e0      	str	r0, [r4, #12]
 800361e:	2000      	movs	r0, #0
 8003620:	e7ca      	b.n	80035b8 <LL_USART_Init+0x14>
 8003622:	18c0      	adds	r0, r0, r3
 8003624:	f7fc fd84 	bl	8000130 <__udivsi3>
 8003628:	b280      	uxth	r0, r0
 800362a:	e7f7      	b.n	800361c <LL_USART_Init+0x78>
 800362c:	ffff69f3 	.word	0xffff69f3
 8003630:	ffffcfff 	.word	0xffffcfff
 8003634:	fffffcff 	.word	0xfffffcff
 8003638:	40013800 	.word	0x40013800
 800363c:	0000fff0 	.word	0x0000fff0

08003640 <LL_SetSystemCoreClock>:
 8003640:	4b01      	ldr	r3, [pc, #4]	@ (8003648 <LL_SetSystemCoreClock+0x8>)
 8003642:	6018      	str	r0, [r3, #0]
 8003644:	4770      	bx	lr
 8003646:	46c0      	nop			@ (mov r8, r8)
 8003648:	20000558 	.word	0x20000558

0800364c <VBS_GetAvBusVoltage_V>:
 800364c:	0003      	movs	r3, r0
 800364e:	88c0      	ldrh	r0, [r0, #6]
 8003650:	885b      	ldrh	r3, [r3, #2]
 8003652:	4358      	muls	r0, r3
 8003654:	0c00      	lsrs	r0, r0, #16
 8003656:	4770      	bx	lr

08003658 <Circle_Limitation>:
 8003658:	b51f      	push	{r0, r1, r2, r3, r4, lr}
 800365a:	140b      	asrs	r3, r1, #16
 800365c:	b20a      	sxth	r2, r1
 800365e:	001c      	movs	r4, r3
 8003660:	9101      	str	r1, [sp, #4]
 8003662:	0011      	movs	r1, r2
 8003664:	435c      	muls	r4, r3
 8003666:	4351      	muls	r1, r2
 8003668:	1909      	adds	r1, r1, r4
 800366a:	8804      	ldrh	r4, [r0, #0]
 800366c:	4364      	muls	r4, r4
 800366e:	42a1      	cmp	r1, r4
 8003670:	d916      	bls.n	80036a0 <Circle_Limitation+0x48>
 8003672:	0004      	movs	r4, r0
 8003674:	34b2      	adds	r4, #178	@ 0xb2
 8003676:	7824      	ldrb	r4, [r4, #0]
 8003678:	0e09      	lsrs	r1, r1, #24
 800367a:	1b09      	subs	r1, r1, r4
 800367c:	b2c9      	uxtb	r1, r1
 800367e:	0049      	lsls	r1, r1, #1
 8003680:	1840      	adds	r0, r0, r1
 8003682:	8884      	ldrh	r4, [r0, #4]
 8003684:	4362      	muls	r2, r4
 8003686:	435c      	muls	r4, r3
 8003688:	17d1      	asrs	r1, r2, #31
 800368a:	17e3      	asrs	r3, r4, #31
 800368c:	0449      	lsls	r1, r1, #17
 800368e:	045b      	lsls	r3, r3, #17
 8003690:	0c49      	lsrs	r1, r1, #17
 8003692:	0c5b      	lsrs	r3, r3, #17
 8003694:	188a      	adds	r2, r1, r2
 8003696:	191b      	adds	r3, r3, r4
 8003698:	13d2      	asrs	r2, r2, #15
 800369a:	13db      	asrs	r3, r3, #15
 800369c:	b212      	sxth	r2, r2
 800369e:	b21b      	sxth	r3, r3
 80036a0:	041b      	lsls	r3, r3, #16
 80036a2:	b290      	uxth	r0, r2
 80036a4:	4318      	orrs	r0, r3
 80036a6:	b004      	add	sp, #16
 80036a8:	bd10      	pop	{r4, pc}

080036aa <EAC_Init>:
 80036aa:	6083      	str	r3, [r0, #8]
 80036ac:	2300      	movs	r3, #0
 80036ae:	6001      	str	r1, [r0, #0]
 80036b0:	6042      	str	r2, [r0, #4]
 80036b2:	81c3      	strh	r3, [r0, #14]
 80036b4:	4770      	bx	lr

080036b6 <EAC_StartAlignment>:
 80036b6:	2200      	movs	r2, #0
 80036b8:	b510      	push	{r4, lr}
 80036ba:	0004      	movs	r4, r0
 80036bc:	0011      	movs	r1, r2
 80036be:	6840      	ldr	r0, [r0, #4]
 80036c0:	f001 fafd 	bl	8004cbe <VSS_SetMecAcceleration>
 80036c4:	2314      	movs	r3, #20
 80036c6:	5ee1      	ldrsh	r1, [r4, r3]
 80036c8:	6860      	ldr	r0, [r4, #4]
 80036ca:	f001 faed 	bl	8004ca8 <VSS_SetMecAngle>
 80036ce:	6820      	ldr	r0, [r4, #0]
 80036d0:	2100      	movs	r1, #0
 80036d2:	f000 ff90 	bl	80045f6 <STC_SetControlMode>
 80036d6:	2200      	movs	r2, #0
 80036d8:	6820      	ldr	r0, [r4, #0]
 80036da:	0011      	movs	r1, r2
 80036dc:	f000 ff8f 	bl	80045fe <STC_ExecRamp>
 80036e0:	2312      	movs	r3, #18
 80036e2:	5ee1      	ldrsh	r1, [r4, r3]
 80036e4:	8ae2      	ldrh	r2, [r4, #22]
 80036e6:	6820      	ldr	r0, [r4, #0]
 80036e8:	f000 ff89 	bl	80045fe <STC_ExecRamp>
 80036ec:	21fa      	movs	r1, #250	@ 0xfa
 80036ee:	8ae3      	ldrh	r3, [r4, #22]
 80036f0:	8a20      	ldrh	r0, [r4, #16]
 80036f2:	0089      	lsls	r1, r1, #2
 80036f4:	4358      	muls	r0, r3
 80036f6:	f7fc fd1b 	bl	8000130 <__udivsi3>
 80036fa:	3001      	adds	r0, #1
 80036fc:	81a0      	strh	r0, [r4, #12]
 80036fe:	bd10      	pop	{r4, pc}

08003700 <EAC_Exec>:
 8003700:	b510      	push	{r4, lr}
 8003702:	8983      	ldrh	r3, [r0, #12]
 8003704:	0004      	movs	r4, r0
 8003706:	2b00      	cmp	r3, #0
 8003708:	d010      	beq.n	800372c <EAC_Exec+0x2c>
 800370a:	3b01      	subs	r3, #1
 800370c:	b29b      	uxth	r3, r3
 800370e:	8183      	strh	r3, [r0, #12]
 8003710:	2000      	movs	r0, #0
 8003712:	4283      	cmp	r3, r0
 8003714:	d10b      	bne.n	800372e <EAC_Exec+0x2e>
 8003716:	2314      	movs	r3, #20
 8003718:	5ee0      	ldrsh	r0, [r4, r3]
 800371a:	7e21      	ldrb	r1, [r4, #24]
 800371c:	f7fc fd92 	bl	8000244 <__divsi3>
 8003720:	b201      	sxth	r1, r0
 8003722:	68a0      	ldr	r0, [r4, #8]
 8003724:	f000 f8e4 	bl	80038f0 <ENC_SetMecAngle>
 8003728:	2301      	movs	r3, #1
 800372a:	73a3      	strb	r3, [r4, #14]
 800372c:	2001      	movs	r0, #1
 800372e:	bd10      	pop	{r4, pc}

08003730 <EAC_IsAligned>:
 8003730:	7b80      	ldrb	r0, [r0, #14]
 8003732:	4770      	bx	lr

08003734 <EAC_SetRestartState>:
 8003734:	73c1      	strb	r1, [r0, #15]
 8003736:	4770      	bx	lr

08003738 <EAC_GetRestartState>:
 8003738:	7bc0      	ldrb	r0, [r0, #15]
 800373a:	4770      	bx	lr

0800373c <ENC_Init>:
 800373c:	b570      	push	{r4, r5, r6, lr}
 800373e:	0003      	movs	r3, r0
 8003740:	2600      	movs	r6, #0
 8003742:	6a05      	ldr	r5, [r0, #32]
 8003744:	0004      	movs	r4, r0
 8003746:	2001      	movs	r0, #1
 8003748:	626e      	str	r6, [r5, #36]	@ 0x24
 800374a:	336e      	adds	r3, #110	@ 0x6e
 800374c:	8819      	ldrh	r1, [r3, #0]
 800374e:	4240      	negs	r0, r0
 8003750:	f7fc fcee 	bl	8000130 <__udivsi3>
 8003754:	0023      	movs	r3, r4
 8003756:	66a0      	str	r0, [r4, #104]	@ 0x68
 8003758:	336c      	adds	r3, #108	@ 0x6c
 800375a:	881a      	ldrh	r2, [r3, #0]
 800375c:	230a      	movs	r3, #10
 800375e:	4353      	muls	r3, r2
 8003760:	6263      	str	r3, [r4, #36]	@ 0x24
 8003762:	0023      	movs	r3, r4
 8003764:	21f0      	movs	r1, #240	@ 0xf0
 8003766:	3377      	adds	r3, #119	@ 0x77
 8003768:	69aa      	ldr	r2, [r5, #24]
 800376a:	781b      	ldrb	r3, [r3, #0]
 800376c:	438a      	bics	r2, r1
 800376e:	011b      	lsls	r3, r3, #4
 8003770:	431a      	orrs	r2, r3
 8003772:	61aa      	str	r2, [r5, #24]
 8003774:	69aa      	ldr	r2, [r5, #24]
 8003776:	490c      	ldr	r1, [pc, #48]	@ (80037a8 <ENC_Init+0x6c>)
 8003778:	021b      	lsls	r3, r3, #8
 800377a:	400a      	ands	r2, r1
 800377c:	4313      	orrs	r3, r2
 800377e:	61ab      	str	r3, [r5, #24]
 8003780:	2302      	movs	r3, #2
 8003782:	425b      	negs	r3, r3
 8003784:	612b      	str	r3, [r5, #16]
 8003786:	68ea      	ldr	r2, [r5, #12]
 8003788:	3303      	adds	r3, #3
 800378a:	431a      	orrs	r2, r3
 800378c:	60ea      	str	r2, [r5, #12]
 800378e:	682a      	ldr	r2, [r5, #0]
 8003790:	0020      	movs	r0, r4
 8003792:	4313      	orrs	r3, r2
 8003794:	602b      	str	r3, [r5, #0]
 8003796:	0023      	movs	r3, r4
 8003798:	3375      	adds	r3, #117	@ 0x75
 800379a:	781a      	ldrb	r2, [r3, #0]
 800379c:	0031      	movs	r1, r6
 800379e:	0092      	lsls	r2, r2, #2
 80037a0:	3028      	adds	r0, #40	@ 0x28
 80037a2:	f001 fb91 	bl	8004ec8 <memset>
 80037a6:	bd70      	pop	{r4, r5, r6, pc}
 80037a8:	ffff0fff 	.word	0xffff0fff

080037ac <ENC_Clear>:
 80037ac:	0003      	movs	r3, r0
 80037ae:	b510      	push	{r4, lr}
 80037b0:	3375      	adds	r3, #117	@ 0x75
 80037b2:	781a      	ldrb	r2, [r3, #0]
 80037b4:	0004      	movs	r4, r0
 80037b6:	2100      	movs	r1, #0
 80037b8:	0092      	lsls	r2, r2, #2
 80037ba:	3028      	adds	r0, #40	@ 0x28
 80037bc:	f001 fb84 	bl	8004ec8 <memset>
 80037c0:	2301      	movs	r3, #1
 80037c2:	3476      	adds	r4, #118	@ 0x76
 80037c4:	7023      	strb	r3, [r4, #0]
 80037c6:	bd10      	pop	{r4, pc}

080037c8 <ENC_CalcAngle>:
 80037c8:	0002      	movs	r2, r0
 80037ca:	6a03      	ldr	r3, [r0, #32]
 80037cc:	6e81      	ldr	r1, [r0, #104]	@ 0x68
 80037ce:	6a5b      	ldr	r3, [r3, #36]	@ 0x24
 80037d0:	b29b      	uxth	r3, r3
 80037d2:	4359      	muls	r1, r3
 80037d4:	17cb      	asrs	r3, r1, #31
 80037d6:	b29b      	uxth	r3, r3
 80037d8:	185b      	adds	r3, r3, r1
 80037da:	141b      	asrs	r3, r3, #16
 80037dc:	2006      	movs	r0, #6
 80037de:	5e11      	ldrsh	r1, [r2, r0]
 80037e0:	7850      	ldrb	r0, [r2, #1]
 80037e2:	80d3      	strh	r3, [r2, #6]
 80037e4:	b29b      	uxth	r3, r3
 80037e6:	4358      	muls	r0, r3
 80037e8:	1a5b      	subs	r3, r3, r1
 80037ea:	6891      	ldr	r1, [r2, #8]
 80037ec:	b21b      	sxth	r3, r3
 80037ee:	b200      	sxth	r0, r0
 80037f0:	18cb      	adds	r3, r1, r3
 80037f2:	8090      	strh	r0, [r2, #4]
 80037f4:	6093      	str	r3, [r2, #8]
 80037f6:	4770      	bx	lr

080037f8 <ENC_CalcAvrgMecSpeedUnit>:
 80037f8:	0002      	movs	r2, r0
 80037fa:	b5f0      	push	{r4, r5, r6, r7, lr}
 80037fc:	6a03      	ldr	r3, [r0, #32]
 80037fe:	0004      	movs	r4, r0
 8003800:	2000      	movs	r0, #0
 8003802:	b085      	sub	sp, #20
 8003804:	9101      	str	r1, [sp, #4]
 8003806:	3275      	adds	r2, #117	@ 0x75
 8003808:	7817      	ldrb	r7, [r2, #0]
 800380a:	3a05      	subs	r2, #5
 800380c:	6a5e      	ldr	r6, [r3, #36]	@ 0x24
 800380e:	8811      	ldrh	r1, [r2, #0]
 8003810:	8010      	strh	r0, [r2, #0]
 8003812:	681a      	ldr	r2, [r3, #0]
 8003814:	2310      	movs	r3, #16
 8003816:	401a      	ands	r2, r3
 8003818:	2901      	cmp	r1, #1
 800381a:	d903      	bls.n	8003824 <ENC_CalcAvrgMecSpeedUnit+0x2c>
 800381c:	0023      	movs	r3, r4
 800381e:	2101      	movs	r1, #1
 8003820:	3379      	adds	r3, #121	@ 0x79
 8003822:	7019      	strb	r1, [r3, #0]
 8003824:	0023      	movs	r3, r4
 8003826:	0021      	movs	r1, r4
 8003828:	0025      	movs	r5, r4
 800382a:	3372      	adds	r3, #114	@ 0x72
 800382c:	9302      	str	r3, [sp, #8]
 800382e:	881b      	ldrh	r3, [r3, #0]
 8003830:	316e      	adds	r1, #110	@ 0x6e
 8003832:	9103      	str	r1, [sp, #12]
 8003834:	8809      	ldrh	r1, [r1, #0]
 8003836:	1af0      	subs	r0, r6, r3
 8003838:	3578      	adds	r5, #120	@ 0x78
 800383a:	2a00      	cmp	r2, #0
 800383c:	d047      	beq.n	80038ce <ENC_CalcAvrgMecSpeedUnit+0xd6>
 800383e:	42b3      	cmp	r3, r6
 8003840:	419b      	sbcs	r3, r3
 8003842:	782a      	ldrb	r2, [r5, #0]
 8003844:	400b      	ands	r3, r1
 8003846:	320a      	adds	r2, #10
 8003848:	0092      	lsls	r2, r2, #2
 800384a:	1ac3      	subs	r3, r0, r3
 800384c:	5113      	str	r3, [r2, r4]
 800384e:	0023      	movs	r3, r4
 8003850:	2200      	movs	r2, #0
 8003852:	00b8      	lsls	r0, r7, #2
 8003854:	1900      	adds	r0, r0, r4
 8003856:	4283      	cmp	r3, r0
 8003858:	d141      	bne.n	80038de <ENC_CalcAvrgMecSpeedUnit+0xe6>
 800385a:	6a60      	ldr	r0, [r4, #36]	@ 0x24
 800385c:	4379      	muls	r1, r7
 800385e:	4350      	muls	r0, r2
 8003860:	f7fc fcf0 	bl	8000244 <__divsi3>
 8003864:	9a01      	ldr	r2, [sp, #4]
 8003866:	b203      	sxth	r3, r0
 8003868:	0025      	movs	r5, r4
 800386a:	8013      	strh	r3, [r2, #0]
 800386c:	89a2      	ldrh	r2, [r4, #12]
 800386e:	3578      	adds	r5, #120	@ 0x78
 8003870:	1a80      	subs	r0, r0, r2
 8003872:	0022      	movs	r2, r4
 8003874:	8260      	strh	r0, [r4, #18]
 8003876:	81a3      	strh	r3, [r4, #12]
 8003878:	782b      	ldrb	r3, [r5, #0]
 800387a:	326c      	adds	r2, #108	@ 0x6c
 800387c:	330a      	adds	r3, #10
 800387e:	009b      	lsls	r3, r3, #2
 8003880:	8812      	ldrh	r2, [r2, #0]
 8003882:	591b      	ldr	r3, [r3, r4]
 8003884:	7860      	ldrb	r0, [r4, #1]
 8003886:	4353      	muls	r3, r2
 8003888:	4358      	muls	r0, r3
 800388a:	9b03      	ldr	r3, [sp, #12]
 800388c:	8819      	ldrh	r1, [r3, #0]
 800388e:	f7fc fcd9 	bl	8000244 <__divsi3>
 8003892:	69e3      	ldr	r3, [r4, #28]
 8003894:	8b61      	ldrh	r1, [r4, #26]
 8003896:	4358      	muls	r0, r3
 8003898:	f7fc fcd4 	bl	8000244 <__divsi3>
 800389c:	9b02      	ldr	r3, [sp, #8]
 800389e:	81e0      	strh	r0, [r4, #14]
 80038a0:	801e      	strh	r6, [r3, #0]
 80038a2:	782b      	ldrb	r3, [r5, #0]
 80038a4:	3301      	adds	r3, #1
 80038a6:	b2db      	uxtb	r3, r3
 80038a8:	702b      	strb	r3, [r5, #0]
 80038aa:	782b      	ldrb	r3, [r5, #0]
 80038ac:	42bb      	cmp	r3, r7
 80038ae:	d101      	bne.n	80038b4 <ENC_CalcAvrgMecSpeedUnit+0xbc>
 80038b0:	2300      	movs	r3, #0
 80038b2:	702b      	strb	r3, [r5, #0]
 80038b4:	0023      	movs	r3, r4
 80038b6:	3379      	adds	r3, #121	@ 0x79
 80038b8:	781b      	ldrb	r3, [r3, #0]
 80038ba:	2b00      	cmp	r3, #0
 80038bc:	d013      	beq.n	80038e6 <ENC_CalcAvrgMecSpeedUnit+0xee>
 80038be:	0023      	movs	r3, r4
 80038c0:	2000      	movs	r0, #0
 80038c2:	3376      	adds	r3, #118	@ 0x76
 80038c4:	7018      	strb	r0, [r3, #0]
 80038c6:	78e3      	ldrb	r3, [r4, #3]
 80038c8:	7023      	strb	r3, [r4, #0]
 80038ca:	b005      	add	sp, #20
 80038cc:	bdf0      	pop	{r4, r5, r6, r7, pc}
 80038ce:	429e      	cmp	r6, r3
 80038d0:	419b      	sbcs	r3, r3
 80038d2:	782a      	ldrb	r2, [r5, #0]
 80038d4:	400b      	ands	r3, r1
 80038d6:	320a      	adds	r2, #10
 80038d8:	0092      	lsls	r2, r2, #2
 80038da:	181b      	adds	r3, r3, r0
 80038dc:	e7b6      	b.n	800384c <ENC_CalcAvrgMecSpeedUnit+0x54>
 80038de:	6a9d      	ldr	r5, [r3, #40]	@ 0x28
 80038e0:	3304      	adds	r3, #4
 80038e2:	1952      	adds	r2, r2, r5
 80038e4:	e7b7      	b.n	8003856 <ENC_CalcAvrgMecSpeedUnit+0x5e>
 80038e6:	0020      	movs	r0, r4
 80038e8:	9901      	ldr	r1, [sp, #4]
 80038ea:	f000 fe30 	bl	800454e <SPD_IsMecSpeedReliable>
 80038ee:	e7ec      	b.n	80038ca <ENC_CalcAvrgMecSpeedUnit+0xd2>

080038f0 <ENC_SetMecAngle>:
 80038f0:	0003      	movs	r3, r0
 80038f2:	b510      	push	{r4, lr}
 80038f4:	80c1      	strh	r1, [r0, #6]
 80038f6:	785a      	ldrb	r2, [r3, #1]
 80038f8:	6a04      	ldr	r4, [r0, #32]
 80038fa:	b288      	uxth	r0, r1
 80038fc:	4342      	muls	r2, r0
 80038fe:	809a      	strh	r2, [r3, #4]
 8003900:	2900      	cmp	r1, #0
 8003902:	da01      	bge.n	8003908 <ENC_SetMecAngle+0x18>
 8003904:	3801      	subs	r0, #1
 8003906:	b280      	uxth	r0, r0
 8003908:	336e      	adds	r3, #110	@ 0x6e
 800390a:	881b      	ldrh	r3, [r3, #0]
 800390c:	4902      	ldr	r1, [pc, #8]	@ (8003918 <ENC_SetMecAngle+0x28>)
 800390e:	4358      	muls	r0, r3
 8003910:	f7fc fc0e 	bl	8000130 <__udivsi3>
 8003914:	6260      	str	r0, [r4, #36]	@ 0x24
 8003916:	bd10      	pop	{r4, pc}
 8003918:	0000ffff 	.word	0x0000ffff

0800391c <ENC_IRQHandler>:
 800391c:	3070      	adds	r0, #112	@ 0x70
 800391e:	8803      	ldrh	r3, [r0, #0]
 8003920:	3301      	adds	r3, #1
 8003922:	b29b      	uxth	r3, r3
 8003924:	8003      	strh	r3, [r0, #0]
 8003926:	2000      	movs	r0, #0
 8003928:	4770      	bx	lr

0800392a <MPM_Clear>:
 800392a:	2280      	movs	r2, #128	@ 0x80
 800392c:	b510      	push	{r4, lr}
 800392e:	2100      	movs	r1, #0
 8003930:	0004      	movs	r4, r0
 8003932:	0052      	lsls	r2, r2, #1
 8003934:	f001 fac8 	bl	8004ec8 <memset>
 8003938:	2300      	movs	r3, #0
 800393a:	34fe      	adds	r4, #254	@ 0xfe
 800393c:	8063      	strh	r3, [r4, #2]
 800393e:	80a3      	strh	r3, [r4, #4]
 8003940:	bd10      	pop	{r4, pc}

08003942 <MPM_CalcElMotorPower>:
 8003942:	0003      	movs	r3, r0
 8003944:	0008      	movs	r0, r1
 8003946:	0019      	movs	r1, r3
 8003948:	b570      	push	{r4, r5, r6, lr}
 800394a:	31fe      	adds	r1, #254	@ 0xfe
 800394c:	884a      	ldrh	r2, [r1, #2]
 800394e:	0054      	lsls	r4, r2, #1
 8003950:	52e0      	strh	r0, [r4, r3]
 8003952:	808a      	strh	r2, [r1, #4]
 8003954:	3201      	adds	r2, #1
 8003956:	b292      	uxth	r2, r2
 8003958:	2a7f      	cmp	r2, #127	@ 0x7f
 800395a:	d900      	bls.n	800395e <MPM_CalcElMotorPower+0x1c>
 800395c:	2200      	movs	r2, #0
 800395e:	804a      	strh	r2, [r1, #2]
 8003960:	2200      	movs	r2, #0
 8003962:	1c5c      	adds	r4, r3, #1
 8003964:	34ff      	adds	r4, #255	@ 0xff
 8003966:	2600      	movs	r6, #0
 8003968:	5f9d      	ldrsh	r5, [r3, r6]
 800396a:	3302      	adds	r3, #2
 800396c:	1952      	adds	r2, r2, r5
 800396e:	429c      	cmp	r4, r3
 8003970:	d1f9      	bne.n	8003966 <MPM_CalcElMotorPower+0x24>
 8003972:	247f      	movs	r4, #127	@ 0x7f
 8003974:	17d3      	asrs	r3, r2, #31
 8003976:	4023      	ands	r3, r4
 8003978:	189b      	adds	r3, r3, r2
 800397a:	11db      	asrs	r3, r3, #7
 800397c:	80cb      	strh	r3, [r1, #6]
 800397e:	bd70      	pop	{r4, r5, r6, pc}

08003980 <NTC_SetFaultState>:
 8003980:	8a02      	ldrh	r2, [r0, #16]
 8003982:	8b41      	ldrh	r1, [r0, #26]
 8003984:	0003      	movs	r3, r0
 8003986:	2008      	movs	r0, #8
 8003988:	4291      	cmp	r1, r2
 800398a:	d304      	bcc.n	8003996 <NTC_SetFaultState+0x16>
 800398c:	8b99      	ldrh	r1, [r3, #28]
 800398e:	2000      	movs	r0, #0
 8003990:	4291      	cmp	r1, r2
 8003992:	d800      	bhi.n	8003996 <NTC_SetFaultState+0x16>
 8003994:	8ad8      	ldrh	r0, [r3, #22]
 8003996:	4770      	bx	lr

08003998 <NTC_Clear>:
 8003998:	2300      	movs	r3, #0
 800399a:	8203      	strh	r3, [r0, #16]
 800399c:	4770      	bx	lr

0800399e <NTC_Init>:
 800399e:	7803      	ldrb	r3, [r0, #0]
 80039a0:	b510      	push	{r4, lr}
 80039a2:	0004      	movs	r4, r0
 80039a4:	2b00      	cmp	r3, #0
 80039a6:	d108      	bne.n	80039ba <NTC_Init+0x1c>
 80039a8:	3004      	adds	r0, #4
 80039aa:	f7ff f83b 	bl	8002a24 <RCM_RegisterRegConv>
 80039ae:	1de3      	adds	r3, r4, #7
 80039b0:	77d8      	strb	r0, [r3, #31]
 80039b2:	0020      	movs	r0, r4
 80039b4:	f7ff fff0 	bl	8003998 <NTC_Clear>
 80039b8:	bd10      	pop	{r4, pc}
 80039ba:	2300      	movs	r3, #0
 80039bc:	82c3      	strh	r3, [r0, #22]
 80039be:	8a43      	ldrh	r3, [r0, #18]
 80039c0:	8203      	strh	r3, [r0, #16]
 80039c2:	e7f9      	b.n	80039b8 <NTC_Init+0x1a>

080039c4 <NTC_CalcAvTemp>:
 80039c4:	b510      	push	{r4, lr}
 80039c6:	7803      	ldrb	r3, [r0, #0]
 80039c8:	0004      	movs	r4, r0
 80039ca:	2000      	movs	r0, #0
 80039cc:	4283      	cmp	r3, r0
 80039ce:	d111      	bne.n	80039f4 <NTC_CalcAvTemp+0x30>
 80039d0:	1de3      	adds	r3, r4, #7
 80039d2:	7fd8      	ldrb	r0, [r3, #31]
 80039d4:	f7ff f86e 	bl	8002ab4 <RCM_ExecRegularConv>
 80039d8:	4b07      	ldr	r3, [pc, #28]	@ (80039f8 <NTC_CalcAvTemp+0x34>)
 80039da:	4298      	cmp	r0, r3
 80039dc:	d007      	beq.n	80039ee <NTC_CalcAvTemp+0x2a>
 80039de:	8b21      	ldrh	r1, [r4, #24]
 80039e0:	8a22      	ldrh	r2, [r4, #16]
 80039e2:	1e4b      	subs	r3, r1, #1
 80039e4:	4353      	muls	r3, r2
 80039e6:	18c0      	adds	r0, r0, r3
 80039e8:	f7fc fba2 	bl	8000130 <__udivsi3>
 80039ec:	8220      	strh	r0, [r4, #16]
 80039ee:	0020      	movs	r0, r4
 80039f0:	f7ff ffc6 	bl	8003980 <NTC_SetFaultState>
 80039f4:	82e0      	strh	r0, [r4, #22]
 80039f6:	bd10      	pop	{r4, pc}
 80039f8:	0000ffff 	.word	0x0000ffff

080039fc <PID_HandleInit>:
 80039fc:	6803      	ldr	r3, [r0, #0]
 80039fe:	6043      	str	r3, [r0, #4]
 8003a00:	8c03      	ldrh	r3, [r0, #32]
 8003a02:	8443      	strh	r3, [r0, #34]	@ 0x22
 8003a04:	2300      	movs	r3, #0
 8003a06:	6083      	str	r3, [r0, #8]
 8003a08:	6283      	str	r3, [r0, #40]	@ 0x28
 8003a0a:	4770      	bx	lr

08003a0c <PID_SetIntegralTerm>:
 8003a0c:	6081      	str	r1, [r0, #8]
 8003a0e:	4770      	bx	lr

08003a10 <PI_Controller>:
 8003a10:	b570      	push	{r4, r5, r6, lr}
 8003a12:	2314      	movs	r3, #20
 8003a14:	5ec4      	ldrsh	r4, [r0, r3]
 8003a16:	2316      	movs	r3, #22
 8003a18:	5ec2      	ldrsh	r2, [r0, r3]
 8003a1a:	2506      	movs	r5, #6
 8003a1c:	5f46      	ldrsh	r6, [r0, r5]
 8003a1e:	2504      	movs	r5, #4
 8003a20:	5f43      	ldrsh	r3, [r0, r5]
 8003a22:	2500      	movs	r5, #0
 8003a24:	434b      	muls	r3, r1
 8003a26:	42ae      	cmp	r6, r5
 8003a28:	d00f      	beq.n	8003a4a <PI_Controller+0x3a>
 8003a2a:	4371      	muls	r1, r6
 8003a2c:	6885      	ldr	r5, [r0, #8]
 8003a2e:	186e      	adds	r6, r5, r1
 8003a30:	d519      	bpl.n	8003a66 <PI_Controller+0x56>
 8003a32:	2d00      	cmp	r5, #0
 8003a34:	dd02      	ble.n	8003a3c <PI_Controller+0x2c>
 8003a36:	2900      	cmp	r1, #0
 8003a38:	dd00      	ble.n	8003a3c <PI_Controller+0x2c>
 8003a3a:	4e10      	ldr	r6, [pc, #64]	@ (8003a7c <PI_Controller+0x6c>)
 8003a3c:	68c5      	ldr	r5, [r0, #12]
 8003a3e:	42b5      	cmp	r5, r6
 8003a40:	db03      	blt.n	8003a4a <PI_Controller+0x3a>
 8003a42:	6905      	ldr	r5, [r0, #16]
 8003a44:	42b5      	cmp	r5, r6
 8003a46:	da00      	bge.n	8003a4a <PI_Controller+0x3a>
 8003a48:	0035      	movs	r5, r6
 8003a4a:	002e      	movs	r6, r5
 8003a4c:	8b81      	ldrh	r1, [r0, #28]
 8003a4e:	410b      	asrs	r3, r1
 8003a50:	8bc1      	ldrh	r1, [r0, #30]
 8003a52:	410e      	asrs	r6, r1
 8003a54:	199b      	adds	r3, r3, r6
 8003a56:	429c      	cmp	r4, r3
 8003a58:	da09      	bge.n	8003a6e <PI_Controller+0x5e>
 8003a5a:	1ae1      	subs	r1, r4, r3
 8003a5c:	0023      	movs	r3, r4
 8003a5e:	1949      	adds	r1, r1, r5
 8003a60:	6081      	str	r1, [r0, #8]
 8003a62:	b218      	sxth	r0, r3
 8003a64:	bd70      	pop	{r4, r5, r6, pc}
 8003a66:	4029      	ands	r1, r5
 8003a68:	d5e8      	bpl.n	8003a3c <PI_Controller+0x2c>
 8003a6a:	4e05      	ldr	r6, [pc, #20]	@ (8003a80 <PI_Controller+0x70>)
 8003a6c:	e7e6      	b.n	8003a3c <PI_Controller+0x2c>
 8003a6e:	2100      	movs	r1, #0
 8003a70:	429a      	cmp	r2, r3
 8003a72:	ddf4      	ble.n	8003a5e <PI_Controller+0x4e>
 8003a74:	1ad1      	subs	r1, r2, r3
 8003a76:	0013      	movs	r3, r2
 8003a78:	e7f1      	b.n	8003a5e <PI_Controller+0x4e>
 8003a7a:	46c0      	nop			@ (mov r8, r8)
 8003a7c:	7fffffff 	.word	0x7fffffff
 8003a80:	80000001 	.word	0x80000001

08003a84 <PID_Controller>:
 8003a84:	b570      	push	{r4, r5, r6, lr}
 8003a86:	2222      	movs	r2, #34	@ 0x22
 8003a88:	5e83      	ldrsh	r3, [r0, r2]
 8003a8a:	0004      	movs	r4, r0
 8003a8c:	2b00      	cmp	r3, #0
 8003a8e:	d014      	beq.n	8003aba <PID_Controller+0x36>
 8003a90:	6a82      	ldr	r2, [r0, #40]	@ 0x28
 8003a92:	6281      	str	r1, [r0, #40]	@ 0x28
 8003a94:	1a8a      	subs	r2, r1, r2
 8003a96:	4353      	muls	r3, r2
 8003a98:	8cc2      	ldrh	r2, [r0, #38]	@ 0x26
 8003a9a:	4113      	asrs	r3, r2
 8003a9c:	001d      	movs	r5, r3
 8003a9e:	f7ff ffb7 	bl	8003a10 <PI_Controller>
 8003aa2:	1945      	adds	r5, r0, r5
 8003aa4:	2314      	movs	r3, #20
 8003aa6:	5ee0      	ldrsh	r0, [r4, r3]
 8003aa8:	42a8      	cmp	r0, r5
 8003aaa:	db04      	blt.n	8003ab6 <PID_Controller+0x32>
 8003aac:	2316      	movs	r3, #22
 8003aae:	5ee0      	ldrsh	r0, [r4, r3]
 8003ab0:	42a8      	cmp	r0, r5
 8003ab2:	da00      	bge.n	8003ab6 <PID_Controller+0x32>
 8003ab4:	0028      	movs	r0, r5
 8003ab6:	b200      	sxth	r0, r0
 8003ab8:	bd70      	pop	{r4, r5, r6, pc}
 8003aba:	f7ff ffa9 	bl	8003a10 <PI_Controller>
 8003abe:	e7fa      	b.n	8003ab6 <PID_Controller+0x32>

08003ac0 <PQD_CalcElMotorPower>:
 8003ac0:	0002      	movs	r2, r0
 8003ac2:	b570      	push	{r4, r5, r6, lr}
 8003ac4:	32fc      	adds	r2, #252	@ 0xfc
 8003ac6:	6913      	ldr	r3, [r2, #16]
 8003ac8:	0005      	movs	r5, r0
 8003aca:	200c      	movs	r0, #12
 8003acc:	5e19      	ldrsh	r1, [r3, r0]
 8003ace:	2016      	movs	r0, #22
 8003ad0:	5e1e      	ldrsh	r6, [r3, r0]
 8003ad2:	68d4      	ldr	r4, [r2, #12]
 8003ad4:	434e      	muls	r6, r1
 8003ad6:	200e      	movs	r0, #14
 8003ad8:	5e19      	ldrsh	r1, [r3, r0]
 8003ada:	2018      	movs	r0, #24
 8003adc:	5e1b      	ldrsh	r3, [r3, r0]
 8003ade:	6950      	ldr	r0, [r2, #20]
 8003ae0:	434b      	muls	r3, r1
 8003ae2:	18f6      	adds	r6, r6, r3
 8003ae4:	f7ff fdb2 	bl	800364c <VBS_GetAvBusVoltage_V>
 8003ae8:	2196      	movs	r1, #150	@ 0x96
 8003aea:	4360      	muls	r0, r4
 8003aec:	0089      	lsls	r1, r1, #2
 8003aee:	f7fc fba9 	bl	8000244 <__divsi3>
 8003af2:	17f4      	asrs	r4, r6, #31
 8003af4:	b2a4      	uxth	r4, r4
 8003af6:	19a4      	adds	r4, r4, r6
 8003af8:	1424      	asrs	r4, r4, #16
 8003afa:	4344      	muls	r4, r0
 8003afc:	21a0      	movs	r1, #160	@ 0xa0
 8003afe:	2006      	movs	r0, #6
 8003b00:	0309      	lsls	r1, r1, #12
 8003b02:	4360      	muls	r0, r4
 8003b04:	f7fc fb9e 	bl	8000244 <__divsi3>
 8003b08:	b201      	sxth	r1, r0
 8003b0a:	0028      	movs	r0, r5
 8003b0c:	f7ff ff19 	bl	8003942 <MPM_CalcElMotorPower>
 8003b10:	bd70      	pop	{r4, r5, r6, pc}

08003b12 <waitForPolarizationEnd>:
 8003b12:	b570      	push	{r4, r5, r6, lr}
 8003b14:	2560      	movs	r5, #96	@ 0x60
 8003b16:	6804      	ldr	r4, [r0, #0]
 8003b18:	3201      	adds	r2, #1
 8003b1a:	402c      	ands	r4, r5
 8003b1c:	42ac      	cmp	r4, r5
 8003b1e:	d118      	bne.n	8003b52 <waitForPolarizationEnd+0x40>
 8003b20:	2403      	movs	r4, #3
 8003b22:	4264      	negs	r4, r4
 8003b24:	6104      	str	r4, [r0, #16]
 8003b26:	2400      	movs	r4, #0
 8003b28:	0152      	lsls	r2, r2, #5
 8003b2a:	781d      	ldrb	r5, [r3, #0]
 8003b2c:	2d0f      	cmp	r5, #15
 8003b2e:	d80f      	bhi.n	8003b50 <waitForPolarizationEnd+0x3e>
 8003b30:	2502      	movs	r5, #2
 8003b32:	6906      	ldr	r6, [r0, #16]
 8003b34:	422e      	tst	r6, r5
 8003b36:	d0fc      	beq.n	8003b32 <waitForPolarizationEnd+0x20>
 8003b38:	2503      	movs	r5, #3
 8003b3a:	3401      	adds	r4, #1
 8003b3c:	426d      	negs	r5, r5
 8003b3e:	b2a4      	uxth	r4, r4
 8003b40:	6105      	str	r5, [r0, #16]
 8003b42:	42a2      	cmp	r2, r4
 8003b44:	d8f1      	bhi.n	8003b2a <waitForPolarizationEnd+0x18>
 8003b46:	781d      	ldrb	r5, [r3, #0]
 8003b48:	2d0f      	cmp	r5, #15
 8003b4a:	d8ee      	bhi.n	8003b2a <waitForPolarizationEnd+0x18>
 8003b4c:	2301      	movs	r3, #1
 8003b4e:	800b      	strh	r3, [r1, #0]
 8003b50:	bd70      	pop	{r4, r5, r6, pc}
 8003b52:	0852      	lsrs	r2, r2, #1
 8003b54:	e7e4      	b.n	8003b20 <waitForPolarizationEnd+0xe>

08003b56 <PWMC_GetPhaseCurrents>:
 8003b56:	b510      	push	{r4, lr}
 8003b58:	6843      	ldr	r3, [r0, #4]
 8003b5a:	4798      	blx	r3
 8003b5c:	bd10      	pop	{r4, pc}

08003b5e <PWMC_SetPhaseVoltage>:
 8003b5e:	b5f7      	push	{r0, r1, r2, r4, r5, r6, r7, lr}
 8003b60:	8e04      	ldrh	r4, [r0, #48]	@ 0x30
 8003b62:	b20b      	sxth	r3, r1
 8003b64:	435c      	muls	r4, r3
 8003b66:	0003      	movs	r3, r0
 8003b68:	3350      	adds	r3, #80	@ 0x50
 8003b6a:	881b      	ldrh	r3, [r3, #0]
 8003b6c:	140f      	asrs	r7, r1, #16
 8003b6e:	435f      	muls	r7, r3
 8003b70:	007f      	lsls	r7, r7, #1
 8003b72:	427e      	negs	r6, r7
 8003b74:	1b31      	subs	r1, r6, r4
 8003b76:	1be7      	subs	r7, r4, r7
 8003b78:	0ffa      	lsrs	r2, r7, #31
 8003b7a:	0fcc      	lsrs	r4, r1, #31
 8003b7c:	19d2      	adds	r2, r2, r7
 8003b7e:	1864      	adds	r4, r4, r1
 8003b80:	1052      	asrs	r2, r2, #1
 8003b82:	1064      	asrs	r4, r4, #1
 8003b84:	089b      	lsrs	r3, r3, #2
 8003b86:	1c7d      	adds	r5, r7, #1
 8003b88:	db00      	blt.n	8003b8c <PWMC_SetPhaseVoltage+0x2e>
 8003b8a:	e080      	b.n	8003c8e <PWMC_SetPhaseVoltage+0x130>
 8003b8c:	1c4d      	adds	r5, r1, #1
 8003b8e:	da4e      	bge.n	8003c2e <PWMC_SetPhaseVoltage+0xd0>
 8003b90:	2604      	movs	r6, #4
 8003b92:	1b12      	subs	r2, r2, r4
 8003b94:	17d4      	asrs	r4, r2, #31
 8003b96:	03a4      	lsls	r4, r4, #14
 8003b98:	0ba4      	lsrs	r4, r4, #14
 8003b9a:	18a4      	adds	r4, r4, r2
 8003b9c:	14a4      	asrs	r4, r4, #18
 8003b9e:	18e4      	adds	r4, r4, r3
 8003ba0:	17ca      	asrs	r2, r1, #31
 8003ba2:	17fb      	asrs	r3, r7, #31
 8003ba4:	0392      	lsls	r2, r2, #14
 8003ba6:	039b      	lsls	r3, r3, #14
 8003ba8:	0b92      	lsrs	r2, r2, #14
 8003baa:	0b9b      	lsrs	r3, r3, #14
 8003bac:	1852      	adds	r2, r2, r1
 8003bae:	19db      	adds	r3, r3, r7
 8003bb0:	1492      	asrs	r2, r2, #18
 8003bb2:	149b      	asrs	r3, r3, #18
 8003bb4:	1912      	adds	r2, r2, r4
 8003bb6:	1ae3      	subs	r3, r4, r3
 8003bb8:	b2a1      	uxth	r1, r4
 8003bba:	b29d      	uxth	r5, r3
 8003bbc:	9100      	str	r1, [sp, #0]
 8003bbe:	b297      	uxth	r7, r2
 8003bc0:	213a      	movs	r1, #58	@ 0x3a
 8003bc2:	468c      	mov	ip, r1
 8003bc4:	4484      	add	ip, r0
 8003bc6:	4661      	mov	r1, ip
 8003bc8:	700e      	strb	r6, [r1, #0]
 8003bca:	9900      	ldr	r1, [sp, #0]
 8003bcc:	b2a4      	uxth	r4, r4
 8003bce:	87c1      	strh	r1, [r0, #62]	@ 0x3e
 8003bd0:	b292      	uxth	r2, r2
 8003bd2:	1c81      	adds	r1, r0, #2
 8003bd4:	b29b      	uxth	r3, r3
 8003bd6:	8785      	strh	r5, [r0, #60]	@ 0x3c
 8003bd8:	87cf      	strh	r7, [r1, #62]	@ 0x3e
 8003bda:	8644      	strh	r4, [r0, #50]	@ 0x32
 8003bdc:	8682      	strh	r2, [r0, #52]	@ 0x34
 8003bde:	86c3      	strh	r3, [r0, #54]	@ 0x36
 8003be0:	314c      	adds	r1, #76	@ 0x4c
 8003be2:	8809      	ldrh	r1, [r1, #0]
 8003be4:	2901      	cmp	r1, #1
 8003be6:	d11f      	bne.n	8003c28 <PWMC_SetPhaseVoltage+0xca>
 8003be8:	0005      	movs	r5, r0
 8003bea:	0001      	movs	r1, r0
 8003bec:	3548      	adds	r5, #72	@ 0x48
 8003bee:	2600      	movs	r6, #0
 8003bf0:	5fad      	ldrsh	r5, [r5, r6]
 8003bf2:	3154      	adds	r1, #84	@ 0x54
 8003bf4:	8809      	ldrh	r1, [r1, #0]
 8003bf6:	2d00      	cmp	r5, #0
 8003bf8:	dc00      	bgt.n	8003bfc <PWMC_SetPhaseVoltage+0x9e>
 8003bfa:	e08e      	b.n	8003d1a <PWMC_SetPhaseVoltage+0x1bc>
 8003bfc:	1864      	adds	r4, r4, r1
 8003bfe:	b2a4      	uxth	r4, r4
 8003c00:	8644      	strh	r4, [r0, #50]	@ 0x32
 8003c02:	0004      	movs	r4, r0
 8003c04:	344a      	adds	r4, #74	@ 0x4a
 8003c06:	2500      	movs	r5, #0
 8003c08:	5f64      	ldrsh	r4, [r4, r5]
 8003c0a:	2c00      	cmp	r4, #0
 8003c0c:	dc00      	bgt.n	8003c10 <PWMC_SetPhaseVoltage+0xb2>
 8003c0e:	e086      	b.n	8003d1e <PWMC_SetPhaseVoltage+0x1c0>
 8003c10:	1852      	adds	r2, r2, r1
 8003c12:	b292      	uxth	r2, r2
 8003c14:	8682      	strh	r2, [r0, #52]	@ 0x34
 8003c16:	0002      	movs	r2, r0
 8003c18:	324c      	adds	r2, #76	@ 0x4c
 8003c1a:	2400      	movs	r4, #0
 8003c1c:	5f12      	ldrsh	r2, [r2, r4]
 8003c1e:	2a00      	cmp	r2, #0
 8003c20:	dc00      	bgt.n	8003c24 <PWMC_SetPhaseVoltage+0xc6>
 8003c22:	e07e      	b.n	8003d22 <PWMC_SetPhaseVoltage+0x1c4>
 8003c24:	1859      	adds	r1, r3, r1
 8003c26:	86c1      	strh	r1, [r0, #54]	@ 0x36
 8003c28:	6983      	ldr	r3, [r0, #24]
 8003c2a:	4798      	blx	r3
 8003c2c:	bdfe      	pop	{r1, r2, r3, r4, r5, r6, r7, pc}
 8003c2e:	2e00      	cmp	r6, #0
 8003c30:	dc18      	bgt.n	8003c64 <PWMC_SetPhaseVoltage+0x106>
 8003c32:	1b32      	subs	r2, r6, r4
 8003c34:	17d4      	asrs	r4, r2, #31
 8003c36:	03a4      	lsls	r4, r4, #14
 8003c38:	0ba4      	lsrs	r4, r4, #14
 8003c3a:	18a4      	adds	r4, r4, r2
 8003c3c:	14a4      	asrs	r4, r4, #18
 8003c3e:	17ca      	asrs	r2, r1, #31
 8003c40:	18e4      	adds	r4, r4, r3
 8003c42:	0392      	lsls	r2, r2, #14
 8003c44:	17f3      	asrs	r3, r6, #31
 8003c46:	0b92      	lsrs	r2, r2, #14
 8003c48:	03db      	lsls	r3, r3, #15
 8003c4a:	1852      	adds	r2, r2, r1
 8003c4c:	0bdb      	lsrs	r3, r3, #15
 8003c4e:	199b      	adds	r3, r3, r6
 8003c50:	1492      	asrs	r2, r2, #18
 8003c52:	1912      	adds	r2, r2, r4
 8003c54:	145b      	asrs	r3, r3, #17
 8003c56:	1ad3      	subs	r3, r2, r3
 8003c58:	b291      	uxth	r1, r2
 8003c5a:	2603      	movs	r6, #3
 8003c5c:	b29d      	uxth	r5, r3
 8003c5e:	9100      	str	r1, [sp, #0]
 8003c60:	b2a7      	uxth	r7, r4
 8003c62:	e7ad      	b.n	8003bc0 <PWMC_SetPhaseVoltage+0x62>
 8003c64:	1b91      	subs	r1, r2, r6
 8003c66:	17ca      	asrs	r2, r1, #31
 8003c68:	0392      	lsls	r2, r2, #14
 8003c6a:	0b92      	lsrs	r2, r2, #14
 8003c6c:	1852      	adds	r2, r2, r1
 8003c6e:	1492      	asrs	r2, r2, #18
 8003c70:	18d4      	adds	r4, r2, r3
 8003c72:	17fb      	asrs	r3, r7, #31
 8003c74:	039b      	lsls	r3, r3, #14
 8003c76:	0b9b      	lsrs	r3, r3, #14
 8003c78:	19db      	adds	r3, r3, r7
 8003c7a:	149b      	asrs	r3, r3, #18
 8003c7c:	1ae3      	subs	r3, r4, r3
 8003c7e:	1476      	asrs	r6, r6, #17
 8003c80:	18f2      	adds	r2, r6, r3
 8003c82:	b299      	uxth	r1, r3
 8003c84:	2602      	movs	r6, #2
 8003c86:	b295      	uxth	r5, r2
 8003c88:	9100      	str	r1, [sp, #0]
 8003c8a:	b2a7      	uxth	r7, r4
 8003c8c:	e798      	b.n	8003bc0 <PWMC_SetPhaseVoltage+0x62>
 8003c8e:	1c4d      	adds	r5, r1, #1
 8003c90:	db18      	blt.n	8003cc4 <PWMC_SetPhaseVoltage+0x166>
 8003c92:	1b12      	subs	r2, r2, r4
 8003c94:	17d4      	asrs	r4, r2, #31
 8003c96:	03a4      	lsls	r4, r4, #14
 8003c98:	0ba4      	lsrs	r4, r4, #14
 8003c9a:	18a4      	adds	r4, r4, r2
 8003c9c:	14a4      	asrs	r4, r4, #18
 8003c9e:	18e4      	adds	r4, r4, r3
 8003ca0:	17ca      	asrs	r2, r1, #31
 8003ca2:	17fb      	asrs	r3, r7, #31
 8003ca4:	0392      	lsls	r2, r2, #14
 8003ca6:	039b      	lsls	r3, r3, #14
 8003ca8:	0b92      	lsrs	r2, r2, #14
 8003caa:	0b9b      	lsrs	r3, r3, #14
 8003cac:	1852      	adds	r2, r2, r1
 8003cae:	19db      	adds	r3, r3, r7
 8003cb0:	1492      	asrs	r2, r2, #18
 8003cb2:	149b      	asrs	r3, r3, #18
 8003cb4:	1912      	adds	r2, r2, r4
 8003cb6:	1ae3      	subs	r3, r4, r3
 8003cb8:	b2a1      	uxth	r1, r4
 8003cba:	2601      	movs	r6, #1
 8003cbc:	b295      	uxth	r5, r2
 8003cbe:	9100      	str	r1, [sp, #0]
 8003cc0:	b29f      	uxth	r7, r3
 8003cc2:	e77d      	b.n	8003bc0 <PWMC_SetPhaseVoltage+0x62>
 8003cc4:	17f5      	asrs	r5, r6, #31
 8003cc6:	2e00      	cmp	r6, #0
 8003cc8:	dc13      	bgt.n	8003cf2 <PWMC_SetPhaseVoltage+0x194>
 8003cca:	1b92      	subs	r2, r2, r6
 8003ccc:	1492      	asrs	r2, r2, #18
 8003cce:	18d4      	adds	r4, r2, r3
 8003cd0:	17fb      	asrs	r3, r7, #31
 8003cd2:	039b      	lsls	r3, r3, #14
 8003cd4:	0b9b      	lsrs	r3, r3, #14
 8003cd6:	03ed      	lsls	r5, r5, #15
 8003cd8:	19db      	adds	r3, r3, r7
 8003cda:	0bed      	lsrs	r5, r5, #15
 8003cdc:	19ad      	adds	r5, r5, r6
 8003cde:	149b      	asrs	r3, r3, #18
 8003ce0:	1ae3      	subs	r3, r4, r3
 8003ce2:	146d      	asrs	r5, r5, #17
 8003ce4:	18ea      	adds	r2, r5, r3
 8003ce6:	b299      	uxth	r1, r3
 8003ce8:	2605      	movs	r6, #5
 8003cea:	b2a5      	uxth	r5, r4
 8003cec:	9100      	str	r1, [sp, #0]
 8003cee:	b297      	uxth	r7, r2
 8003cf0:	e766      	b.n	8003bc0 <PWMC_SetPhaseVoltage+0x62>
 8003cf2:	17ca      	asrs	r2, r1, #31
 8003cf4:	0392      	lsls	r2, r2, #14
 8003cf6:	1b34      	subs	r4, r6, r4
 8003cf8:	0b92      	lsrs	r2, r2, #14
 8003cfa:	03ed      	lsls	r5, r5, #15
 8003cfc:	1852      	adds	r2, r2, r1
 8003cfe:	14a4      	asrs	r4, r4, #18
 8003d00:	0bed      	lsrs	r5, r5, #15
 8003d02:	18e4      	adds	r4, r4, r3
 8003d04:	19ad      	adds	r5, r5, r6
 8003d06:	1492      	asrs	r2, r2, #18
 8003d08:	1912      	adds	r2, r2, r4
 8003d0a:	146d      	asrs	r5, r5, #17
 8003d0c:	1b53      	subs	r3, r2, r5
 8003d0e:	b291      	uxth	r1, r2
 8003d10:	2600      	movs	r6, #0
 8003d12:	b2a5      	uxth	r5, r4
 8003d14:	9100      	str	r1, [sp, #0]
 8003d16:	b29f      	uxth	r7, r3
 8003d18:	e752      	b.n	8003bc0 <PWMC_SetPhaseVoltage+0x62>
 8003d1a:	1a64      	subs	r4, r4, r1
 8003d1c:	e76f      	b.n	8003bfe <PWMC_SetPhaseVoltage+0xa0>
 8003d1e:	1a52      	subs	r2, r2, r1
 8003d20:	e777      	b.n	8003c12 <PWMC_SetPhaseVoltage+0xb4>
 8003d22:	1a5b      	subs	r3, r3, r1
 8003d24:	86c3      	strh	r3, [r0, #54]	@ 0x36
 8003d26:	e77f      	b.n	8003c28 <PWMC_SetPhaseVoltage+0xca>

08003d28 <PWMC_SwitchOffPWM>:
 8003d28:	b510      	push	{r4, lr}
 8003d2a:	6883      	ldr	r3, [r0, #8]
 8003d2c:	4798      	blx	r3
 8003d2e:	bd10      	pop	{r4, pc}

08003d30 <PWMC_CurrentReadingCalibr>:
 8003d30:	b510      	push	{r4, lr}
 8003d32:	0004      	movs	r4, r0
 8003d34:	2900      	cmp	r1, #0
 8003d36:	d10a      	bne.n	8003d4e <PWMC_CurrentReadingCalibr+0x1e>
 8003d38:	f7ff fff6 	bl	8003d28 <PWMC_SwitchOffPWM>
 8003d3c:	0023      	movs	r3, r4
 8003d3e:	3352      	adds	r3, #82	@ 0x52
 8003d40:	881b      	ldrh	r3, [r3, #0]
 8003d42:	1da2      	adds	r2, r4, #6
 8003d44:	87d3      	strh	r3, [r2, #62]	@ 0x3e
 8003d46:	2b00      	cmp	r3, #0
 8003d48:	d00c      	beq.n	8003d64 <PWMC_CurrentReadingCalibr+0x34>
 8003d4a:	2000      	movs	r0, #0
 8003d4c:	bd10      	pop	{r4, pc}
 8003d4e:	2901      	cmp	r1, #1
 8003d50:	d1fb      	bne.n	8003d4a <PWMC_CurrentReadingCalibr+0x1a>
 8003d52:	1d82      	adds	r2, r0, #6
 8003d54:	8fd3      	ldrh	r3, [r2, #62]	@ 0x3e
 8003d56:	2b00      	cmp	r3, #0
 8003d58:	d101      	bne.n	8003d5e <PWMC_CurrentReadingCalibr+0x2e>
 8003d5a:	2001      	movs	r0, #1
 8003d5c:	e7f6      	b.n	8003d4c <PWMC_CurrentReadingCalibr+0x1c>
 8003d5e:	3b01      	subs	r3, #1
 8003d60:	b29b      	uxth	r3, r3
 8003d62:	e7ef      	b.n	8003d44 <PWMC_CurrentReadingCalibr+0x14>
 8003d64:	0020      	movs	r0, r4
 8003d66:	6923      	ldr	r3, [r4, #16]
 8003d68:	4798      	blx	r3
 8003d6a:	e7f6      	b.n	8003d5a <PWMC_CurrentReadingCalibr+0x2a>

08003d6c <PWMC_CheckOverCurrent>:
 8003d6c:	b510      	push	{r4, lr}
 8003d6e:	69c3      	ldr	r3, [r0, #28]
 8003d70:	4798      	blx	r3
 8003d72:	bd10      	pop	{r4, pc}

08003d74 <R3_1_GetPhaseCurrents>:
 8003d74:	b570      	push	{r4, r5, r6, lr}
 8003d76:	2470      	movs	r4, #112	@ 0x70
 8003d78:	0003      	movs	r3, r0
 8003d7a:	483b      	ldr	r0, [pc, #236]	@ (8003e68 <R3_1_GetPhaseCurrents+0xf4>)
 8003d7c:	2504      	movs	r5, #4
 8003d7e:	6842      	ldr	r2, [r0, #4]
 8003d80:	43a2      	bics	r2, r4
 8003d82:	6042      	str	r2, [r0, #4]
 8003d84:	001a      	movs	r2, r3
 8003d86:	4c39      	ldr	r4, [pc, #228]	@ (8003e6c <R3_1_GetPhaseCurrents+0xf8>)
 8003d88:	323a      	adds	r2, #58	@ 0x3a
 8003d8a:	7810      	ldrb	r0, [r2, #0]
 8003d8c:	68e2      	ldr	r2, [r4, #12]
 8003d8e:	43aa      	bics	r2, r5
 8003d90:	60e2      	str	r2, [r4, #12]
 8003d92:	6f9a      	ldr	r2, [r3, #120]	@ 0x78
 8003d94:	0084      	lsls	r4, r0, #2
 8003d96:	1912      	adds	r2, r2, r4
 8003d98:	6b54      	ldr	r4, [r2, #52]	@ 0x34
 8003d9a:	6cd2      	ldr	r2, [r2, #76]	@ 0x4c
 8003d9c:	8825      	ldrh	r5, [r4, #0]
 8003d9e:	8812      	ldrh	r2, [r2, #0]
 8003da0:	b2ad      	uxth	r5, r5
 8003da2:	b292      	uxth	r2, r2
 8003da4:	2805      	cmp	r0, #5
 8003da6:	d814      	bhi.n	8003dd2 <R3_1_GetPhaseCurrents+0x5e>
 8003da8:	4c31      	ldr	r4, [pc, #196]	@ (8003e70 <R3_1_GetPhaseCurrents+0xfc>)
 8003daa:	f7fc f9b7 	bl	800011c <__gnu_thumb1_case_uqi>
 8003dae:	462c      	.short	0x462c
 8003db0:	2c030346 	.word	0x2c030346
 8003db4:	6dd8      	ldr	r0, [r3, #92]	@ 0x5c
 8003db6:	1b40      	subs	r0, r0, r5
 8003db8:	42a0      	cmp	r0, r4
 8003dba:	db19      	blt.n	8003df0 <R3_1_GetPhaseCurrents+0x7c>
 8003dbc:	2580      	movs	r5, #128	@ 0x80
 8003dbe:	022d      	lsls	r5, r5, #8
 8003dc0:	42a8      	cmp	r0, r5
 8003dc2:	da17      	bge.n	8003df4 <R3_1_GetPhaseCurrents+0x80>
 8003dc4:	b200      	sxth	r0, r0
 8003dc6:	8008      	strh	r0, [r1, #0]
 8003dc8:	6e18      	ldr	r0, [r3, #96]	@ 0x60
 8003dca:	1a82      	subs	r2, r0, r2
 8003dcc:	42a2      	cmp	r2, r4
 8003dce:	da13      	bge.n	8003df8 <R3_1_GetPhaseCurrents+0x84>
 8003dd0:	804c      	strh	r4, [r1, #2]
 8003dd2:	2000      	movs	r0, #0
 8003dd4:	5e0a      	ldrsh	r2, [r1, r0]
 8003dd6:	0018      	movs	r0, r3
 8003dd8:	3048      	adds	r0, #72	@ 0x48
 8003dda:	8002      	strh	r2, [r0, #0]
 8003ddc:	2002      	movs	r0, #2
 8003dde:	5e09      	ldrsh	r1, [r1, r0]
 8003de0:	0018      	movs	r0, r3
 8003de2:	1852      	adds	r2, r2, r1
 8003de4:	304a      	adds	r0, #74	@ 0x4a
 8003de6:	4252      	negs	r2, r2
 8003de8:	334c      	adds	r3, #76	@ 0x4c
 8003dea:	8001      	strh	r1, [r0, #0]
 8003dec:	801a      	strh	r2, [r3, #0]
 8003dee:	bd70      	pop	{r4, r5, r6, pc}
 8003df0:	481f      	ldr	r0, [pc, #124]	@ (8003e70 <R3_1_GetPhaseCurrents+0xfc>)
 8003df2:	e7e8      	b.n	8003dc6 <R3_1_GetPhaseCurrents+0x52>
 8003df4:	481f      	ldr	r0, [pc, #124]	@ (8003e74 <R3_1_GetPhaseCurrents+0x100>)
 8003df6:	e7e6      	b.n	8003dc6 <R3_1_GetPhaseCurrents+0x52>
 8003df8:	2080      	movs	r0, #128	@ 0x80
 8003dfa:	0200      	lsls	r0, r0, #8
 8003dfc:	4282      	cmp	r2, r0
 8003dfe:	db00      	blt.n	8003e02 <R3_1_GetPhaseCurrents+0x8e>
 8003e00:	4a1c      	ldr	r2, [pc, #112]	@ (8003e74 <R3_1_GetPhaseCurrents+0x100>)
 8003e02:	804a      	strh	r2, [r1, #2]
 8003e04:	e7e5      	b.n	8003dd2 <R3_1_GetPhaseCurrents+0x5e>
 8003e06:	6e18      	ldr	r0, [r3, #96]	@ 0x60
 8003e08:	1b40      	subs	r0, r0, r5
 8003e0a:	2580      	movs	r5, #128	@ 0x80
 8003e0c:	022d      	lsls	r5, r5, #8
 8003e0e:	42a0      	cmp	r0, r4
 8003e10:	db0b      	blt.n	8003e2a <R3_1_GetPhaseCurrents+0xb6>
 8003e12:	42a8      	cmp	r0, r5
 8003e14:	da0b      	bge.n	8003e2e <R3_1_GetPhaseCurrents+0xba>
 8003e16:	b200      	sxth	r0, r0
 8003e18:	6e5e      	ldr	r6, [r3, #100]	@ 0x64
 8003e1a:	8048      	strh	r0, [r1, #2]
 8003e1c:	1b92      	subs	r2, r2, r6
 8003e1e:	1a12      	subs	r2, r2, r0
 8003e20:	42aa      	cmp	r2, r5
 8003e22:	db06      	blt.n	8003e32 <R3_1_GetPhaseCurrents+0xbe>
 8003e24:	4a13      	ldr	r2, [pc, #76]	@ (8003e74 <R3_1_GetPhaseCurrents+0x100>)
 8003e26:	800a      	strh	r2, [r1, #0]
 8003e28:	e7d3      	b.n	8003dd2 <R3_1_GetPhaseCurrents+0x5e>
 8003e2a:	4811      	ldr	r0, [pc, #68]	@ (8003e70 <R3_1_GetPhaseCurrents+0xfc>)
 8003e2c:	e7f4      	b.n	8003e18 <R3_1_GetPhaseCurrents+0xa4>
 8003e2e:	4811      	ldr	r0, [pc, #68]	@ (8003e74 <R3_1_GetPhaseCurrents+0x100>)
 8003e30:	e7f2      	b.n	8003e18 <R3_1_GetPhaseCurrents+0xa4>
 8003e32:	42a2      	cmp	r2, r4
 8003e34:	daf7      	bge.n	8003e26 <R3_1_GetPhaseCurrents+0xb2>
 8003e36:	800c      	strh	r4, [r1, #0]
 8003e38:	e7cb      	b.n	8003dd2 <R3_1_GetPhaseCurrents+0x5e>
 8003e3a:	6dd8      	ldr	r0, [r3, #92]	@ 0x5c
 8003e3c:	1b40      	subs	r0, r0, r5
 8003e3e:	2580      	movs	r5, #128	@ 0x80
 8003e40:	022d      	lsls	r5, r5, #8
 8003e42:	42a0      	cmp	r0, r4
 8003e44:	db0b      	blt.n	8003e5e <R3_1_GetPhaseCurrents+0xea>
 8003e46:	42a8      	cmp	r0, r5
 8003e48:	da0b      	bge.n	8003e62 <R3_1_GetPhaseCurrents+0xee>
 8003e4a:	b200      	sxth	r0, r0
 8003e4c:	6e5e      	ldr	r6, [r3, #100]	@ 0x64
 8003e4e:	8008      	strh	r0, [r1, #0]
 8003e50:	1b92      	subs	r2, r2, r6
 8003e52:	1a12      	subs	r2, r2, r0
 8003e54:	42aa      	cmp	r2, r5
 8003e56:	dad3      	bge.n	8003e00 <R3_1_GetPhaseCurrents+0x8c>
 8003e58:	42a2      	cmp	r2, r4
 8003e5a:	dbb9      	blt.n	8003dd0 <R3_1_GetPhaseCurrents+0x5c>
 8003e5c:	e7d1      	b.n	8003e02 <R3_1_GetPhaseCurrents+0x8e>
 8003e5e:	4804      	ldr	r0, [pc, #16]	@ (8003e70 <R3_1_GetPhaseCurrents+0xfc>)
 8003e60:	e7f4      	b.n	8003e4c <R3_1_GetPhaseCurrents+0xd8>
 8003e62:	4804      	ldr	r0, [pc, #16]	@ (8003e74 <R3_1_GetPhaseCurrents+0x100>)
 8003e64:	e7f2      	b.n	8003e4c <R3_1_GetPhaseCurrents+0xd8>
 8003e66:	46c0      	nop			@ (mov r8, r8)
 8003e68:	40012c00 	.word	0x40012c00
 8003e6c:	40012400 	.word	0x40012400
 8003e70:	ffff8001 	.word	0xffff8001
 8003e74:	00007fff 	.word	0x00007fff

08003e78 <R3_1_HFCurrentsCalibrationAB>:
 8003e78:	0003      	movs	r3, r0
 8003e7a:	b570      	push	{r4, r5, r6, lr}
 8003e7c:	2470      	movs	r4, #112	@ 0x70
 8003e7e:	4a0f      	ldr	r2, [pc, #60]	@ (8003ebc <R3_1_HFCurrentsCalibrationAB+0x44>)
 8003e80:	3373      	adds	r3, #115	@ 0x73
 8003e82:	781d      	ldrb	r5, [r3, #0]
 8003e84:	6853      	ldr	r3, [r2, #4]
 8003e86:	43a3      	bics	r3, r4
 8003e88:	0004      	movs	r4, r0
 8003e8a:	6053      	str	r3, [r2, #4]
 8003e8c:	3472      	adds	r4, #114	@ 0x72
 8003e8e:	7823      	ldrb	r3, [r4, #0]
 8003e90:	2b0f      	cmp	r3, #15
 8003e92:	d80e      	bhi.n	8003eb2 <R3_1_HFCurrentsCalibrationAB+0x3a>
 8003e94:	6f82      	ldr	r2, [r0, #120]	@ 0x78
 8003e96:	00ad      	lsls	r5, r5, #2
 8003e98:	1952      	adds	r2, r2, r5
 8003e9a:	6b55      	ldr	r5, [r2, #52]	@ 0x34
 8003e9c:	6cd2      	ldr	r2, [r2, #76]	@ 0x4c
 8003e9e:	882e      	ldrh	r6, [r5, #0]
 8003ea0:	6dc5      	ldr	r5, [r0, #92]	@ 0x5c
 8003ea2:	3301      	adds	r3, #1
 8003ea4:	19ad      	adds	r5, r5, r6
 8003ea6:	65c5      	str	r5, [r0, #92]	@ 0x5c
 8003ea8:	8815      	ldrh	r5, [r2, #0]
 8003eaa:	6e02      	ldr	r2, [r0, #96]	@ 0x60
 8003eac:	1952      	adds	r2, r2, r5
 8003eae:	6602      	str	r2, [r0, #96]	@ 0x60
 8003eb0:	7023      	strb	r3, [r4, #0]
 8003eb2:	2300      	movs	r3, #0
 8003eb4:	800b      	strh	r3, [r1, #0]
 8003eb6:	804b      	strh	r3, [r1, #2]
 8003eb8:	bd70      	pop	{r4, r5, r6, pc}
 8003eba:	46c0      	nop			@ (mov r8, r8)
 8003ebc:	40012c00 	.word	0x40012c00

08003ec0 <R3_1_HFCurrentsCalibrationC>:
 8003ec0:	b530      	push	{r4, r5, lr}
 8003ec2:	0003      	movs	r3, r0
 8003ec4:	2570      	movs	r5, #112	@ 0x70
 8003ec6:	4c0f      	ldr	r4, [pc, #60]	@ (8003f04 <R3_1_HFCurrentsCalibrationC+0x44>)
 8003ec8:	3373      	adds	r3, #115	@ 0x73
 8003eca:	6862      	ldr	r2, [r4, #4]
 8003ecc:	781b      	ldrb	r3, [r3, #0]
 8003ece:	43aa      	bics	r2, r5
 8003ed0:	6062      	str	r2, [r4, #4]
 8003ed2:	0002      	movs	r2, r0
 8003ed4:	2400      	movs	r4, #0
 8003ed6:	323a      	adds	r2, #58	@ 0x3a
 8003ed8:	7014      	strb	r4, [r2, #0]
 8003eda:	0004      	movs	r4, r0
 8003edc:	3472      	adds	r4, #114	@ 0x72
 8003ede:	7822      	ldrb	r2, [r4, #0]
 8003ee0:	2a0f      	cmp	r2, #15
 8003ee2:	d80a      	bhi.n	8003efa <R3_1_HFCurrentsCalibrationC+0x3a>
 8003ee4:	6f85      	ldr	r5, [r0, #120]	@ 0x78
 8003ee6:	3312      	adds	r3, #18
 8003ee8:	009b      	lsls	r3, r3, #2
 8003eea:	18eb      	adds	r3, r5, r3
 8003eec:	685b      	ldr	r3, [r3, #4]
 8003eee:	3201      	adds	r2, #1
 8003ef0:	881d      	ldrh	r5, [r3, #0]
 8003ef2:	6e43      	ldr	r3, [r0, #100]	@ 0x64
 8003ef4:	195b      	adds	r3, r3, r5
 8003ef6:	6643      	str	r3, [r0, #100]	@ 0x64
 8003ef8:	7022      	strb	r2, [r4, #0]
 8003efa:	2300      	movs	r3, #0
 8003efc:	800b      	strh	r3, [r1, #0]
 8003efe:	804b      	strh	r3, [r1, #2]
 8003f00:	bd30      	pop	{r4, r5, pc}
 8003f02:	46c0      	nop			@ (mov r8, r8)
 8003f04:	40012c00 	.word	0x40012c00

08003f08 <R3_1_Init>:
 8003f08:	b5f7      	push	{r0, r1, r2, r4, r5, r6, r7, lr}
 8003f0a:	2404      	movs	r4, #4
 8003f0c:	2108      	movs	r1, #8
 8003f0e:	4b37      	ldr	r3, [pc, #220]	@ (8003fec <R3_1_Init+0xe4>)
 8003f10:	2710      	movs	r7, #16
 8003f12:	685a      	ldr	r2, [r3, #4]
 8003f14:	43a2      	bics	r2, r4
 8003f16:	605a      	str	r2, [r3, #4]
 8003f18:	601c      	str	r4, [r3, #0]
 8003f1a:	685a      	ldr	r2, [r3, #4]
 8003f1c:	438a      	bics	r2, r1
 8003f1e:	605a      	str	r2, [r3, #4]
 8003f20:	2280      	movs	r2, #128	@ 0x80
 8003f22:	6019      	str	r1, [r3, #0]
 8003f24:	4932      	ldr	r1, [pc, #200]	@ (8003ff0 <R3_1_Init+0xe8>)
 8003f26:	0312      	lsls	r2, r2, #12
 8003f28:	680d      	ldr	r5, [r1, #0]
 8003f2a:	432a      	orrs	r2, r5
 8003f2c:	2581      	movs	r5, #129	@ 0x81
 8003f2e:	600a      	str	r2, [r1, #0]
 8003f30:	4a30      	ldr	r2, [pc, #192]	@ (8003ff4 <R3_1_Init+0xec>)
 8003f32:	426d      	negs	r5, r5
 8003f34:	6115      	str	r5, [r2, #16]
 8003f36:	68d6      	ldr	r6, [r2, #12]
 8003f38:	3502      	adds	r5, #2
 8003f3a:	35ff      	adds	r5, #255	@ 0xff
 8003f3c:	4335      	orrs	r5, r6
 8003f3e:	60d5      	str	r5, [r2, #12]
 8003f40:	0005      	movs	r5, r0
 8003f42:	2680      	movs	r6, #128	@ 0x80
 8003f44:	356c      	adds	r5, #108	@ 0x6c
 8003f46:	882d      	ldrh	r5, [r5, #0]
 8003f48:	03f6      	lsls	r6, r6, #15
 8003f4a:	3d01      	subs	r5, #1
 8003f4c:	6255      	str	r5, [r2, #36]	@ 0x24
 8003f4e:	698d      	ldr	r5, [r1, #24]
 8003f50:	4335      	orrs	r5, r6
 8003f52:	618d      	str	r5, [r1, #24]
 8003f54:	6989      	ldr	r1, [r1, #24]
 8003f56:	4d28      	ldr	r5, [pc, #160]	@ (8003ff8 <R3_1_Init+0xf0>)
 8003f58:	4031      	ands	r1, r6
 8003f5a:	9101      	str	r1, [sp, #4]
 8003f5c:	9901      	ldr	r1, [sp, #4]
 8003f5e:	2180      	movs	r1, #128	@ 0x80
 8003f60:	68ee      	ldr	r6, [r5, #12]
 8003f62:	0109      	lsls	r1, r1, #4
 8003f64:	4331      	orrs	r1, r6
 8003f66:	60e9      	str	r1, [r5, #12]
 8003f68:	2180      	movs	r1, #128	@ 0x80
 8003f6a:	689d      	ldr	r5, [r3, #8]
 8003f6c:	4e23      	ldr	r6, [pc, #140]	@ (8003ffc <R3_1_Init+0xf4>)
 8003f6e:	0609      	lsls	r1, r1, #24
 8003f70:	4035      	ands	r5, r6
 8003f72:	4329      	orrs	r1, r5
 8003f74:	6099      	str	r1, [r3, #8]
 8003f76:	2102      	movs	r1, #2
 8003f78:	689d      	ldr	r5, [r3, #8]
 8003f7a:	2d00      	cmp	r5, #0
 8003f7c:	dbfc      	blt.n	8003f78 <R3_1_Init+0x70>
 8003f7e:	689d      	ldr	r5, [r3, #8]
 8003f80:	4225      	tst	r5, r4
 8003f82:	d1f9      	bne.n	8003f78 <R3_1_Init+0x70>
 8003f84:	689d      	ldr	r5, [r3, #8]
 8003f86:	423d      	tst	r5, r7
 8003f88:	d1f6      	bne.n	8003f78 <R3_1_Init+0x70>
 8003f8a:	689d      	ldr	r5, [r3, #8]
 8003f8c:	420d      	tst	r5, r1
 8003f8e:	d1f3      	bne.n	8003f78 <R3_1_Init+0x70>
 8003f90:	2101      	movs	r1, #1
 8003f92:	689c      	ldr	r4, [r3, #8]
 8003f94:	4034      	ands	r4, r6
 8003f96:	430c      	orrs	r4, r1
 8003f98:	609c      	str	r4, [r3, #8]
 8003f9a:	681c      	ldr	r4, [r3, #0]
 8003f9c:	420c      	tst	r4, r1
 8003f9e:	d0fc      	beq.n	8003f9a <R3_1_Init+0x92>
 8003fa0:	0004      	movs	r4, r0
 8003fa2:	2503      	movs	r5, #3
 8003fa4:	4b16      	ldr	r3, [pc, #88]	@ (8004000 <R3_1_Init+0xf8>)
 8003fa6:	346e      	adds	r4, #110	@ 0x6e
 8003fa8:	60dc      	str	r4, [r3, #12]
 8003faa:	4c16      	ldr	r4, [pc, #88]	@ (8004004 <R3_1_Init+0xfc>)
 8003fac:	609c      	str	r4, [r3, #8]
 8003fae:	685c      	ldr	r4, [r3, #4]
 8003fb0:	0c24      	lsrs	r4, r4, #16
 8003fb2:	0424      	lsls	r4, r4, #16
 8003fb4:	432c      	orrs	r4, r5
 8003fb6:	605c      	str	r4, [r3, #4]
 8003fb8:	681c      	ldr	r4, [r3, #0]
 8003fba:	430c      	orrs	r4, r1
 8003fbc:	601c      	str	r4, [r3, #0]
 8003fbe:	2470      	movs	r4, #112	@ 0x70
 8003fc0:	6853      	ldr	r3, [r2, #4]
 8003fc2:	43a3      	bics	r3, r4
 8003fc4:	6053      	str	r3, [r2, #4]
 8003fc6:	6a14      	ldr	r4, [r2, #32]
 8003fc8:	4b0f      	ldr	r3, [pc, #60]	@ (8004008 <R3_1_Init+0x100>)
 8003fca:	4323      	orrs	r3, r4
 8003fcc:	6213      	str	r3, [r2, #32]
 8003fce:	2380      	movs	r3, #128	@ 0x80
 8003fd0:	0004      	movs	r4, r0
 8003fd2:	00db      	lsls	r3, r3, #3
 8003fd4:	6683      	str	r3, [r0, #104]	@ 0x68
 8003fd6:	2300      	movs	r3, #0
 8003fd8:	3474      	adds	r4, #116	@ 0x74
 8003fda:	304e      	adds	r0, #78	@ 0x4e
 8003fdc:	8023      	strh	r3, [r4, #0]
 8003fde:	70e3      	strb	r3, [r4, #3]
 8003fe0:	8003      	strh	r3, [r0, #0]
 8003fe2:	6813      	ldr	r3, [r2, #0]
 8003fe4:	4319      	orrs	r1, r3
 8003fe6:	6011      	str	r1, [r2, #0]
 8003fe8:	bdf7      	pop	{r0, r1, r2, r4, r5, r6, r7, pc}
 8003fea:	46c0      	nop			@ (mov r8, r8)
 8003fec:	40012400 	.word	0x40012400
 8003ff0:	40021000 	.word	0x40021000
 8003ff4:	40012c00 	.word	0x40012c00
 8003ff8:	40015800 	.word	0x40015800
 8003ffc:	7fffffe8 	.word	0x7fffffe8
 8004000:	40020008 	.word	0x40020008
 8004004:	40012440 	.word	0x40012440
 8004008:	00000555 	.word	0x00000555

0800400c <R3_1_WriteTIMRegisters>:
 800400c:	0003      	movs	r3, r0
 800400e:	6f82      	ldr	r2, [r0, #120]	@ 0x78
 8004010:	8e40      	ldrh	r0, [r0, #50]	@ 0x32
 8004012:	6812      	ldr	r2, [r2, #0]
 8004014:	6350      	str	r0, [r2, #52]	@ 0x34
 8004016:	8e98      	ldrh	r0, [r3, #52]	@ 0x34
 8004018:	6390      	str	r0, [r2, #56]	@ 0x38
 800401a:	8ed8      	ldrh	r0, [r3, #54]	@ 0x36
 800401c:	63d0      	str	r0, [r2, #60]	@ 0x3c
 800401e:	6411      	str	r1, [r2, #64]	@ 0x40
 8004020:	8f18      	ldrh	r0, [r3, #56]	@ 0x38
 8004022:	6852      	ldr	r2, [r2, #4]
 8004024:	2801      	cmp	r0, #1
 8004026:	d005      	beq.n	8004034 <R3_1_WriteTIMRegisters+0x28>
 8004028:	2370      	movs	r3, #112	@ 0x70
 800402a:	401a      	ands	r2, r3
 800402c:	1e53      	subs	r3, r2, #1
 800402e:	419a      	sbcs	r2, r3
 8004030:	b290      	uxth	r0, r2
 8004032:	4770      	bx	lr
 8004034:	2200      	movs	r2, #0
 8004036:	871a      	strh	r2, [r3, #56]	@ 0x38
 8004038:	e7fb      	b.n	8004032 <R3_1_WriteTIMRegisters+0x26>

0800403a <R3_1_SetADCSampPointCalibration>:
 800403a:	2380      	movs	r3, #128	@ 0x80
 800403c:	00db      	lsls	r3, r3, #3
 800403e:	b510      	push	{r4, lr}
 8004040:	6683      	str	r3, [r0, #104]	@ 0x68
 8004042:	0003      	movs	r3, r0
 8004044:	0002      	movs	r2, r0
 8004046:	333a      	adds	r3, #58	@ 0x3a
 8004048:	8e59      	ldrh	r1, [r3, #50]	@ 0x32
 800404a:	3273      	adds	r2, #115	@ 0x73
 800404c:	7812      	ldrb	r2, [r2, #0]
 800404e:	3901      	subs	r1, #1
 8004050:	701a      	strb	r2, [r3, #0]
 8004052:	b289      	uxth	r1, r1
 8004054:	f7ff ffda 	bl	800400c <R3_1_WriteTIMRegisters>
 8004058:	bd10      	pop	{r4, pc}

0800405a <R3_1_SetADCSampPointSectX>:
 800405a:	b570      	push	{r4, r5, r6, lr}
 800405c:	0003      	movs	r3, r0
 800405e:	6f86      	ldr	r6, [r0, #120]	@ 0x78
 8004060:	336c      	adds	r3, #108	@ 0x6c
 8004062:	0031      	movs	r1, r6
 8004064:	8f85      	ldrh	r5, [r0, #60]	@ 0x3c
 8004066:	881b      	ldrh	r3, [r3, #0]
 8004068:	3166      	adds	r1, #102	@ 0x66
 800406a:	1b5a      	subs	r2, r3, r5
 800406c:	8809      	ldrh	r1, [r1, #0]
 800406e:	b292      	uxth	r2, r2
 8004070:	8fc4      	ldrh	r4, [r0, #62]	@ 0x3e
 8004072:	428a      	cmp	r2, r1
 8004074:	d908      	bls.n	8004088 <R3_1_SetADCSampPointSectX+0x2e>
 8004076:	0002      	movs	r2, r0
 8004078:	2104      	movs	r1, #4
 800407a:	323a      	adds	r2, #58	@ 0x3a
 800407c:	3b01      	subs	r3, #1
 800407e:	7011      	strb	r1, [r2, #0]
 8004080:	b299      	uxth	r1, r3
 8004082:	f7ff ffc3 	bl	800400c <R3_1_WriteTIMRegisters>
 8004086:	bd70      	pop	{r4, r5, r6, pc}
 8004088:	1b2c      	subs	r4, r5, r4
 800408a:	b2a4      	uxth	r4, r4
 800408c:	0052      	lsls	r2, r2, #1
 800408e:	4294      	cmp	r4, r2
 8004090:	d904      	bls.n	800409c <R3_1_SetADCSampPointSectX+0x42>
 8004092:	3668      	adds	r6, #104	@ 0x68
 8004094:	8831      	ldrh	r1, [r6, #0]
 8004096:	1a69      	subs	r1, r5, r1
 8004098:	b289      	uxth	r1, r1
 800409a:	e7f2      	b.n	8004082 <R3_1_SetADCSampPointSectX+0x28>
 800409c:	1949      	adds	r1, r1, r5
 800409e:	b289      	uxth	r1, r1
 80040a0:	428b      	cmp	r3, r1
 80040a2:	d8ee      	bhi.n	8004082 <R3_1_SetADCSampPointSectX+0x28>
 80040a4:	2280      	movs	r2, #128	@ 0x80
 80040a6:	005b      	lsls	r3, r3, #1
 80040a8:	0112      	lsls	r2, r2, #4
 80040aa:	3b01      	subs	r3, #1
 80040ac:	6682      	str	r2, [r0, #104]	@ 0x68
 80040ae:	1a59      	subs	r1, r3, r1
 80040b0:	e7f2      	b.n	8004098 <R3_1_SetADCSampPointSectX+0x3e>
	...

080040b4 <R3_1_TurnOnLowSides>:
 80040b4:	0003      	movs	r3, r0
 80040b6:	2101      	movs	r1, #1
 80040b8:	2202      	movs	r2, #2
 80040ba:	3342      	adds	r3, #66	@ 0x42
 80040bc:	7019      	strb	r1, [r3, #0]
 80040be:	4b0f      	ldr	r3, [pc, #60]	@ (80040fc <R3_1_TurnOnLowSides+0x48>)
 80040c0:	4252      	negs	r2, r2
 80040c2:	611a      	str	r2, [r3, #16]
 80040c4:	2200      	movs	r2, #0
 80040c6:	635a      	str	r2, [r3, #52]	@ 0x34
 80040c8:	639a      	str	r2, [r3, #56]	@ 0x38
 80040ca:	63da      	str	r2, [r3, #60]	@ 0x3c
 80040cc:	691a      	ldr	r2, [r3, #16]
 80040ce:	420a      	tst	r2, r1
 80040d0:	d0fc      	beq.n	80040cc <R3_1_TurnOnLowSides+0x18>
 80040d2:	2280      	movs	r2, #128	@ 0x80
 80040d4:	6c59      	ldr	r1, [r3, #68]	@ 0x44
 80040d6:	0212      	lsls	r2, r2, #8
 80040d8:	430a      	orrs	r2, r1
 80040da:	645a      	str	r2, [r3, #68]	@ 0x44
 80040dc:	6f83      	ldr	r3, [r0, #120]	@ 0x78
 80040de:	001a      	movs	r2, r3
 80040e0:	3272      	adds	r2, #114	@ 0x72
 80040e2:	7812      	ldrb	r2, [r2, #0]
 80040e4:	2a02      	cmp	r2, #2
 80040e6:	d108      	bne.n	80040fa <R3_1_TurnOnLowSides+0x46>
 80040e8:	685a      	ldr	r2, [r3, #4]
 80040ea:	6919      	ldr	r1, [r3, #16]
 80040ec:	6191      	str	r1, [r2, #24]
 80040ee:	689a      	ldr	r2, [r3, #8]
 80040f0:	6959      	ldr	r1, [r3, #20]
 80040f2:	6191      	str	r1, [r2, #24]
 80040f4:	68da      	ldr	r2, [r3, #12]
 80040f6:	699b      	ldr	r3, [r3, #24]
 80040f8:	6193      	str	r3, [r2, #24]
 80040fa:	4770      	bx	lr
 80040fc:	40012c00 	.word	0x40012c00

08004100 <R3_1_SwitchOnPWM>:
 8004100:	0003      	movs	r3, r0
 8004102:	b5f7      	push	{r0, r1, r2, r4, r5, r6, r7, lr}
 8004104:	2200      	movs	r2, #0
 8004106:	2401      	movs	r4, #1
 8004108:	3342      	adds	r3, #66	@ 0x42
 800410a:	701a      	strb	r2, [r3, #0]
 800410c:	3335      	adds	r3, #53	@ 0x35
 800410e:	701c      	strb	r4, [r3, #0]
 8004110:	3b0b      	subs	r3, #11
 8004112:	881a      	ldrh	r2, [r3, #0]
 8004114:	4b2f      	ldr	r3, [pc, #188]	@ (80041d4 <R3_1_SwitchOnPWM+0xd4>)
 8004116:	0851      	lsrs	r1, r2, #1
 8004118:	3a05      	subs	r2, #5
 800411a:	6359      	str	r1, [r3, #52]	@ 0x34
 800411c:	6399      	str	r1, [r3, #56]	@ 0x38
 800411e:	63d9      	str	r1, [r3, #60]	@ 0x3c
 8004120:	641a      	str	r2, [r3, #64]	@ 0x40
 8004122:	2202      	movs	r2, #2
 8004124:	4252      	negs	r2, r2
 8004126:	611a      	str	r2, [r3, #16]
 8004128:	6919      	ldr	r1, [r3, #16]
 800412a:	4221      	tst	r1, r4
 800412c:	d0fc      	beq.n	8004128 <R3_1_SwitchOnPWM+0x28>
 800412e:	611a      	str	r2, [r3, #16]
 8004130:	2280      	movs	r2, #128	@ 0x80
 8004132:	6c59      	ldr	r1, [r3, #68]	@ 0x44
 8004134:	00d2      	lsls	r2, r2, #3
 8004136:	430a      	orrs	r2, r1
 8004138:	645a      	str	r2, [r3, #68]	@ 0x44
 800413a:	2280      	movs	r2, #128	@ 0x80
 800413c:	6c59      	ldr	r1, [r3, #68]	@ 0x44
 800413e:	0212      	lsls	r2, r2, #8
 8004140:	430a      	orrs	r2, r1
 8004142:	645a      	str	r2, [r3, #68]	@ 0x44
 8004144:	6f82      	ldr	r2, [r0, #120]	@ 0x78
 8004146:	0011      	movs	r1, r2
 8004148:	3172      	adds	r1, #114	@ 0x72
 800414a:	7809      	ldrb	r1, [r1, #0]
 800414c:	2902      	cmp	r1, #2
 800414e:	d112      	bne.n	8004176 <R3_1_SwitchOnPWM+0x76>
 8004150:	6a19      	ldr	r1, [r3, #32]
 8004152:	6856      	ldr	r6, [r2, #4]
 8004154:	0008      	movs	r0, r1
 8004156:	68d1      	ldr	r1, [r2, #12]
 8004158:	6917      	ldr	r7, [r2, #16]
 800415a:	9100      	str	r1, [sp, #0]
 800415c:	6991      	ldr	r1, [r2, #24]
 800415e:	6894      	ldr	r4, [r2, #8]
 8004160:	9101      	str	r1, [sp, #4]
 8004162:	491d      	ldr	r1, [pc, #116]	@ (80041d8 <R3_1_SwitchOnPWM+0xd8>)
 8004164:	6955      	ldr	r5, [r2, #20]
 8004166:	4008      	ands	r0, r1
 8004168:	4288      	cmp	r0, r1
 800416a:	d12d      	bne.n	80041c8 <R3_1_SwitchOnPWM+0xc8>
 800416c:	9901      	ldr	r1, [sp, #4]
 800416e:	9800      	ldr	r0, [sp, #0]
 8004170:	61b7      	str	r7, [r6, #24]
 8004172:	61a5      	str	r5, [r4, #24]
 8004174:	6181      	str	r1, [r0, #24]
 8004176:	2407      	movs	r4, #7
 8004178:	2502      	movs	r5, #2
 800417a:	2604      	movs	r6, #4
 800417c:	2703      	movs	r7, #3
 800417e:	4817      	ldr	r0, [pc, #92]	@ (80041dc <R3_1_SwitchOnPWM+0xdc>)
 8004180:	326a      	adds	r2, #106	@ 0x6a
 8004182:	6941      	ldr	r1, [r0, #20]
 8004184:	7812      	ldrb	r2, [r2, #0]
 8004186:	43a1      	bics	r1, r4
 8004188:	430a      	orrs	r2, r1
 800418a:	6142      	str	r2, [r0, #20]
 800418c:	4a14      	ldr	r2, [pc, #80]	@ (80041e0 <R3_1_SwitchOnPWM+0xe0>)
 800418e:	3c06      	subs	r4, #6
 8004190:	6811      	ldr	r1, [r2, #0]
 8004192:	43a1      	bics	r1, r4
 8004194:	6011      	str	r1, [r2, #0]
 8004196:	6851      	ldr	r1, [r2, #4]
 8004198:	0c09      	lsrs	r1, r1, #16
 800419a:	0409      	lsls	r1, r1, #16
 800419c:	4329      	orrs	r1, r5
 800419e:	6051      	str	r1, [r2, #4]
 80041a0:	6811      	ldr	r1, [r2, #0]
 80041a2:	4321      	orrs	r1, r4
 80041a4:	6011      	str	r1, [r2, #0]
 80041a6:	6006      	str	r6, [r0, #0]
 80041a8:	68c1      	ldr	r1, [r0, #12]
 80041aa:	43b9      	bics	r1, r7
 80041ac:	4321      	orrs	r1, r4
 80041ae:	60c1      	str	r1, [r0, #12]
 80041b0:	490c      	ldr	r1, [pc, #48]	@ (80041e4 <R3_1_SwitchOnPWM+0xe4>)
 80041b2:	604e      	str	r6, [r1, #4]
 80041b4:	6811      	ldr	r1, [r2, #0]
 80041b6:	430d      	orrs	r5, r1
 80041b8:	6015      	str	r5, [r2, #0]
 80041ba:	2202      	movs	r2, #2
 80041bc:	4252      	negs	r2, r2
 80041be:	611a      	str	r2, [r3, #16]
 80041c0:	68da      	ldr	r2, [r3, #12]
 80041c2:	4314      	orrs	r4, r2
 80041c4:	60dc      	str	r4, [r3, #12]
 80041c6:	bdf7      	pop	{r0, r1, r2, r4, r5, r6, r7, pc}
 80041c8:	9901      	ldr	r1, [sp, #4]
 80041ca:	9800      	ldr	r0, [sp, #0]
 80041cc:	62b7      	str	r7, [r6, #40]	@ 0x28
 80041ce:	62a5      	str	r5, [r4, #40]	@ 0x28
 80041d0:	6281      	str	r1, [r0, #40]	@ 0x28
 80041d2:	e7d0      	b.n	8004176 <R3_1_SwitchOnPWM+0x76>
 80041d4:	40012c00 	.word	0x40012c00
 80041d8:	00000555 	.word	0x00000555
 80041dc:	40012400 	.word	0x40012400
 80041e0:	40020008 	.word	0x40020008
 80041e4:	40020000 	.word	0x40020000

080041e8 <R3_1_SwitchOffPWM>:
 80041e8:	2101      	movs	r1, #1
 80041ea:	4a21      	ldr	r2, [pc, #132]	@ (8004270 <R3_1_SwitchOffPWM+0x88>)
 80041ec:	b530      	push	{r4, r5, lr}
 80041ee:	68d3      	ldr	r3, [r2, #12]
 80041f0:	438b      	bics	r3, r1
 80041f2:	60d3      	str	r3, [r2, #12]
 80041f4:	0003      	movs	r3, r0
 80041f6:	2100      	movs	r1, #0
 80041f8:	3342      	adds	r3, #66	@ 0x42
 80041fa:	7019      	strb	r1, [r3, #0]
 80041fc:	6c53      	ldr	r3, [r2, #68]	@ 0x44
 80041fe:	491d      	ldr	r1, [pc, #116]	@ (8004274 <R3_1_SwitchOffPWM+0x8c>)
 8004200:	400b      	ands	r3, r1
 8004202:	6453      	str	r3, [r2, #68]	@ 0x44
 8004204:	0003      	movs	r3, r0
 8004206:	3376      	adds	r3, #118	@ 0x76
 8004208:	781b      	ldrb	r3, [r3, #0]
 800420a:	2b00      	cmp	r3, #0
 800420c:	d10e      	bne.n	800422c <R3_1_SwitchOffPWM+0x44>
 800420e:	6f83      	ldr	r3, [r0, #120]	@ 0x78
 8004210:	0019      	movs	r1, r3
 8004212:	3172      	adds	r1, #114	@ 0x72
 8004214:	7809      	ldrb	r1, [r1, #0]
 8004216:	2902      	cmp	r1, #2
 8004218:	d108      	bne.n	800422c <R3_1_SwitchOffPWM+0x44>
 800421a:	6859      	ldr	r1, [r3, #4]
 800421c:	691c      	ldr	r4, [r3, #16]
 800421e:	628c      	str	r4, [r1, #40]	@ 0x28
 8004220:	6899      	ldr	r1, [r3, #8]
 8004222:	695c      	ldr	r4, [r3, #20]
 8004224:	628c      	str	r4, [r1, #40]	@ 0x28
 8004226:	68d9      	ldr	r1, [r3, #12]
 8004228:	699b      	ldr	r3, [r3, #24]
 800422a:	628b      	str	r3, [r1, #40]	@ 0x28
 800422c:	2502      	movs	r5, #2
 800422e:	4912      	ldr	r1, [pc, #72]	@ (8004278 <R3_1_SwitchOffPWM+0x90>)
 8004230:	3077      	adds	r0, #119	@ 0x77
 8004232:	680b      	ldr	r3, [r1, #0]
 8004234:	43ab      	bics	r3, r5
 8004236:	600b      	str	r3, [r1, #0]
 8004238:	4b10      	ldr	r3, [pc, #64]	@ (800427c <R3_1_SwitchOffPWM+0x94>)
 800423a:	4911      	ldr	r1, [pc, #68]	@ (8004280 <R3_1_SwitchOffPWM+0x98>)
 800423c:	689c      	ldr	r4, [r3, #8]
 800423e:	400c      	ands	r4, r1
 8004240:	2110      	movs	r1, #16
 8004242:	4321      	orrs	r1, r4
 8004244:	2401      	movs	r4, #1
 8004246:	6099      	str	r1, [r3, #8]
 8004248:	68d9      	ldr	r1, [r3, #12]
 800424a:	43a1      	bics	r1, r4
 800424c:	60d9      	str	r1, [r3, #12]
 800424e:	490d      	ldr	r1, [pc, #52]	@ (8004284 <R3_1_SwitchOffPWM+0x9c>)
 8004250:	604d      	str	r5, [r1, #4]
 8004252:	2104      	movs	r1, #4
 8004254:	6019      	str	r1, [r3, #0]
 8004256:	68d9      	ldr	r1, [r3, #12]
 8004258:	4d0b      	ldr	r5, [pc, #44]	@ (8004288 <R3_1_SwitchOffPWM+0xa0>)
 800425a:	4029      	ands	r1, r5
 800425c:	60d9      	str	r1, [r3, #12]
 800425e:	2300      	movs	r3, #0
 8004260:	7003      	strb	r3, [r0, #0]
 8004262:	3b02      	subs	r3, #2
 8004264:	6113      	str	r3, [r2, #16]
 8004266:	6911      	ldr	r1, [r2, #16]
 8004268:	4221      	tst	r1, r4
 800426a:	d0fc      	beq.n	8004266 <R3_1_SwitchOffPWM+0x7e>
 800426c:	6113      	str	r3, [r2, #16]
 800426e:	bd30      	pop	{r4, r5, pc}
 8004270:	40012c00 	.word	0x40012c00
 8004274:	ffff7fff 	.word	0xffff7fff
 8004278:	40020008 	.word	0x40020008
 800427c:	40012400 	.word	0x40012400
 8004280:	7fffffe8 	.word	0x7fffffe8
 8004284:	40020000 	.word	0x40020000
 8004288:	fffff23f 	.word	0xfffff23f

0800428c <R3_1_CurrentReadingCalibration>:
 800428c:	b5f7      	push	{r0, r1, r2, r4, r5, r6, r7, lr}
 800428e:	0007      	movs	r7, r0
 8004290:	2600      	movs	r6, #0
 8004292:	4d37      	ldr	r5, [pc, #220]	@ (8004370 <R3_1_CurrentReadingCalibration+0xe4>)
 8004294:	3772      	adds	r7, #114	@ 0x72
 8004296:	65c6      	str	r6, [r0, #92]	@ 0x5c
 8004298:	6606      	str	r6, [r0, #96]	@ 0x60
 800429a:	6646      	str	r6, [r0, #100]	@ 0x64
 800429c:	703e      	strb	r6, [r7, #0]
 800429e:	6a2b      	ldr	r3, [r5, #32]
 80042a0:	4a34      	ldr	r2, [pc, #208]	@ (8004374 <R3_1_CurrentReadingCalibration+0xe8>)
 80042a2:	0004      	movs	r4, r0
 80042a4:	4013      	ands	r3, r2
 80042a6:	622b      	str	r3, [r5, #32]
 80042a8:	4b33      	ldr	r3, [pc, #204]	@ (8004378 <R3_1_CurrentReadingCalibration+0xec>)
 80042aa:	2204      	movs	r2, #4
 80042ac:	6043      	str	r3, [r0, #4]
 80042ae:	4b33      	ldr	r3, [pc, #204]	@ (800437c <R3_1_CurrentReadingCalibration+0xf0>)
 80042b0:	6183      	str	r3, [r0, #24]
 80042b2:	0003      	movs	r3, r0
 80042b4:	3373      	adds	r3, #115	@ 0x73
 80042b6:	701a      	strb	r2, [r3, #0]
 80042b8:	3b39      	subs	r3, #57	@ 0x39
 80042ba:	701a      	strb	r2, [r3, #0]
 80042bc:	9300      	str	r3, [sp, #0]
 80042be:	f7ff ff1f 	bl	8004100 <R3_1_SwitchOnPWM>
 80042c2:	0023      	movs	r3, r4
 80042c4:	3338      	adds	r3, #56	@ 0x38
 80042c6:	9301      	str	r3, [sp, #4]
 80042c8:	6fa3      	ldr	r3, [r4, #120]	@ 0x78
 80042ca:	9901      	ldr	r1, [sp, #4]
 80042cc:	336b      	adds	r3, #107	@ 0x6b
 80042ce:	781a      	ldrb	r2, [r3, #0]
 80042d0:	0028      	movs	r0, r5
 80042d2:	003b      	movs	r3, r7
 80042d4:	f7ff fc1d 	bl	8003b12 <waitForPolarizationEnd>
 80042d8:	0020      	movs	r0, r4
 80042da:	f7ff ff85 	bl	80041e8 <R3_1_SwitchOffPWM>
 80042de:	4b28      	ldr	r3, [pc, #160]	@ (8004380 <R3_1_CurrentReadingCalibration+0xf4>)
 80042e0:	0020      	movs	r0, r4
 80042e2:	6063      	str	r3, [r4, #4]
 80042e4:	9b00      	ldr	r3, [sp, #0]
 80042e6:	701e      	strb	r6, [r3, #0]
 80042e8:	803e      	strh	r6, [r7, #0]
 80042ea:	f7ff ff09 	bl	8004100 <R3_1_SwitchOnPWM>
 80042ee:	6fa3      	ldr	r3, [r4, #120]	@ 0x78
 80042f0:	0028      	movs	r0, r5
 80042f2:	336b      	adds	r3, #107	@ 0x6b
 80042f4:	781a      	ldrb	r2, [r3, #0]
 80042f6:	9901      	ldr	r1, [sp, #4]
 80042f8:	003b      	movs	r3, r7
 80042fa:	f7ff fc0a 	bl	8003b12 <waitForPolarizationEnd>
 80042fe:	0020      	movs	r0, r4
 8004300:	f7ff ff72 	bl	80041e8 <R3_1_SwitchOffPWM>
 8004304:	2204      	movs	r2, #4
 8004306:	9b00      	ldr	r3, [sp, #0]
 8004308:	491e      	ldr	r1, [pc, #120]	@ (8004384 <R3_1_CurrentReadingCalibration+0xf8>)
 800430a:	701a      	strb	r2, [r3, #0]
 800430c:	6de3      	ldr	r3, [r4, #92]	@ 0x5c
 800430e:	40d3      	lsrs	r3, r2
 8004310:	65e3      	str	r3, [r4, #92]	@ 0x5c
 8004312:	6e23      	ldr	r3, [r4, #96]	@ 0x60
 8004314:	40d3      	lsrs	r3, r2
 8004316:	6623      	str	r3, [r4, #96]	@ 0x60
 8004318:	6e63      	ldr	r3, [r4, #100]	@ 0x64
 800431a:	40d3      	lsrs	r3, r2
 800431c:	6663      	str	r3, [r4, #100]	@ 0x64
 800431e:	4b1a      	ldr	r3, [pc, #104]	@ (8004388 <R3_1_CurrentReadingCalibration+0xfc>)
 8004320:	6063      	str	r3, [r4, #4]
 8004322:	4b1a      	ldr	r3, [pc, #104]	@ (800438c <R3_1_CurrentReadingCalibration+0x100>)
 8004324:	61a3      	str	r3, [r4, #24]
 8004326:	4b1a      	ldr	r3, [pc, #104]	@ (8004390 <R3_1_CurrentReadingCalibration+0x104>)
 8004328:	681a      	ldr	r2, [r3, #0]
 800432a:	400a      	ands	r2, r1
 800432c:	601a      	str	r2, [r3, #0]
 800432e:	681a      	ldr	r2, [r3, #0]
 8004330:	400a      	ands	r2, r1
 8004332:	601a      	str	r2, [r3, #0]
 8004334:	681a      	ldr	r2, [r3, #0]
 8004336:	400a      	ands	r2, r1
 8004338:	601a      	str	r2, [r3, #0]
 800433a:	0022      	movs	r2, r4
 800433c:	326c      	adds	r2, #108	@ 0x6c
 800433e:	8812      	ldrh	r2, [r2, #0]
 8004340:	4914      	ldr	r1, [pc, #80]	@ (8004394 <R3_1_CurrentReadingCalibration+0x108>)
 8004342:	636a      	str	r2, [r5, #52]	@ 0x34
 8004344:	63aa      	str	r2, [r5, #56]	@ 0x38
 8004346:	63ea      	str	r2, [r5, #60]	@ 0x3c
 8004348:	2208      	movs	r2, #8
 800434a:	6808      	ldr	r0, [r1, #0]
 800434c:	3476      	adds	r4, #118	@ 0x76
 800434e:	4310      	orrs	r0, r2
 8004350:	6008      	str	r0, [r1, #0]
 8004352:	2080      	movs	r0, #128	@ 0x80
 8004354:	680f      	ldr	r7, [r1, #0]
 8004356:	0100      	lsls	r0, r0, #4
 8004358:	4338      	orrs	r0, r7
 800435a:	6008      	str	r0, [r1, #0]
 800435c:	6819      	ldr	r1, [r3, #0]
 800435e:	430a      	orrs	r2, r1
 8004360:	601a      	str	r2, [r3, #0]
 8004362:	6a2a      	ldr	r2, [r5, #32]
 8004364:	4b0c      	ldr	r3, [pc, #48]	@ (8004398 <R3_1_CurrentReadingCalibration+0x10c>)
 8004366:	4313      	orrs	r3, r2
 8004368:	622b      	str	r3, [r5, #32]
 800436a:	7026      	strb	r6, [r4, #0]
 800436c:	bdf7      	pop	{r0, r1, r2, r4, r5, r6, r7, pc}
 800436e:	46c0      	nop			@ (mov r8, r8)
 8004370:	40012c00 	.word	0x40012c00
 8004374:	fffffaaa 	.word	0xfffffaaa
 8004378:	08003e79 	.word	0x08003e79
 800437c:	0800403b 	.word	0x0800403b
 8004380:	08003ec1 	.word	0x08003ec1
 8004384:	fffff7ff 	.word	0xfffff7ff
 8004388:	08003d75 	.word	0x08003d75
 800438c:	0800405b 	.word	0x0800405b
 8004390:	40012c1c 	.word	0x40012c1c
 8004394:	40012c18 	.word	0x40012c18
 8004398:	00000555 	.word	0x00000555

0800439c <R3_1_TIMx_UP_IRQHandler>:
 800439c:	b5f0      	push	{r4, r5, r6, r7, lr}
 800439e:	2580      	movs	r5, #128	@ 0x80
 80043a0:	4b19      	ldr	r3, [pc, #100]	@ (8004408 <R3_1_TIMx_UP_IRQHandler+0x6c>)
 80043a2:	6e81      	ldr	r1, [r0, #104]	@ 0x68
 80043a4:	4c19      	ldr	r4, [pc, #100]	@ (800440c <R3_1_TIMx_UP_IRQHandler+0x70>)
 80043a6:	68da      	ldr	r2, [r3, #12]
 80043a8:	00ed      	lsls	r5, r5, #3
 80043aa:	4022      	ands	r2, r4
 80043ac:	430a      	orrs	r2, r1
 80043ae:	60da      	str	r2, [r3, #12]
 80043b0:	68da      	ldr	r2, [r3, #12]
 80043b2:	4917      	ldr	r1, [pc, #92]	@ (8004410 <R3_1_TIMx_UP_IRQHandler+0x74>)
 80043b4:	400a      	ands	r2, r1
 80043b6:	432a      	orrs	r2, r5
 80043b8:	60da      	str	r2, [r3, #12]
 80043ba:	0002      	movs	r2, r0
 80043bc:	323a      	adds	r2, #58	@ 0x3a
 80043be:	6f81      	ldr	r1, [r0, #120]	@ 0x78
 80043c0:	7812      	ldrb	r2, [r2, #0]
 80043c2:	68df      	ldr	r7, [r3, #12]
 80043c4:	188c      	adds	r4, r1, r2
 80043c6:	346c      	adds	r4, #108	@ 0x6c
 80043c8:	7826      	ldrb	r6, [r4, #0]
 80043ca:	2404      	movs	r4, #4
 80043cc:	00b6      	lsls	r6, r6, #2
 80043ce:	43a7      	bics	r7, r4
 80043d0:	3206      	adds	r2, #6
 80043d2:	433e      	orrs	r6, r7
 80043d4:	0092      	lsls	r2, r2, #2
 80043d6:	60de      	str	r6, [r3, #12]
 80043d8:	188a      	adds	r2, r1, r2
 80043da:	6852      	ldr	r2, [r2, #4]
 80043dc:	316a      	adds	r1, #106	@ 0x6a
 80043de:	629a      	str	r2, [r3, #40]	@ 0x28
 80043e0:	780a      	ldrb	r2, [r1, #0]
 80043e2:	2107      	movs	r1, #7
 80043e4:	695e      	ldr	r6, [r3, #20]
 80043e6:	438e      	bics	r6, r1
 80043e8:	4332      	orrs	r2, r6
 80043ea:	2670      	movs	r6, #112	@ 0x70
 80043ec:	4909      	ldr	r1, [pc, #36]	@ (8004414 <R3_1_TIMx_UP_IRQHandler+0x78>)
 80043ee:	615a      	str	r2, [r3, #20]
 80043f0:	684a      	ldr	r2, [r1, #4]
 80043f2:	4332      	orrs	r2, r6
 80043f4:	604a      	str	r2, [r1, #4]
 80043f6:	689a      	ldr	r2, [r3, #8]
 80043f8:	4907      	ldr	r1, [pc, #28]	@ (8004418 <R3_1_TIMx_UP_IRQHandler+0x7c>)
 80043fa:	400a      	ands	r2, r1
 80043fc:	4314      	orrs	r4, r2
 80043fe:	609c      	str	r4, [r3, #8]
 8004400:	6685      	str	r5, [r0, #104]	@ 0x68
 8004402:	3046      	adds	r0, #70	@ 0x46
 8004404:	bdf0      	pop	{r4, r5, r6, r7, pc}
 8004406:	46c0      	nop			@ (mov r8, r8)
 8004408:	40012400 	.word	0x40012400
 800440c:	fffff3ff 	.word	0xfffff3ff
 8004410:	fffff23f 	.word	0xfffff23f
 8004414:	40012c00 	.word	0x40012c00
 8004418:	7fffffe8 	.word	0x7fffffe8

0800441c <F0XX_BRK_IRQHandler>:
 800441c:	6f83      	ldr	r3, [r0, #120]	@ 0x78
 800441e:	001a      	movs	r2, r3
 8004420:	3272      	adds	r2, #114	@ 0x72
 8004422:	7812      	ldrb	r2, [r2, #0]
 8004424:	2a02      	cmp	r2, #2
 8004426:	d108      	bne.n	800443a <F0XX_BRK_IRQHandler+0x1e>
 8004428:	685a      	ldr	r2, [r3, #4]
 800442a:	6919      	ldr	r1, [r3, #16]
 800442c:	6291      	str	r1, [r2, #40]	@ 0x28
 800442e:	689a      	ldr	r2, [r3, #8]
 8004430:	6959      	ldr	r1, [r3, #20]
 8004432:	6291      	str	r1, [r2, #40]	@ 0x28
 8004434:	68da      	ldr	r2, [r3, #12]
 8004436:	699b      	ldr	r3, [r3, #24]
 8004438:	6293      	str	r3, [r2, #40]	@ 0x28
 800443a:	2301      	movs	r3, #1
 800443c:	3074      	adds	r0, #116	@ 0x74
 800443e:	7003      	strb	r3, [r0, #0]
 8004440:	2000      	movs	r0, #0
 8004442:	4770      	bx	lr

08004444 <R3_1_IsOverCurrentOccurred>:
 8004444:	0002      	movs	r2, r0
 8004446:	0003      	movs	r3, r0
 8004448:	2000      	movs	r0, #0
 800444a:	3275      	adds	r2, #117	@ 0x75
 800444c:	7811      	ldrb	r1, [r2, #0]
 800444e:	4281      	cmp	r1, r0
 8004450:	d001      	beq.n	8004456 <R3_1_IsOverCurrentOccurred+0x12>
 8004452:	7010      	strb	r0, [r2, #0]
 8004454:	3002      	adds	r0, #2
 8004456:	3374      	adds	r3, #116	@ 0x74
 8004458:	781a      	ldrb	r2, [r3, #0]
 800445a:	2a00      	cmp	r2, #0
 800445c:	d003      	beq.n	8004466 <R3_1_IsOverCurrentOccurred+0x22>
 800445e:	2240      	movs	r2, #64	@ 0x40
 8004460:	4310      	orrs	r0, r2
 8004462:	2200      	movs	r2, #0
 8004464:	701a      	strb	r2, [r3, #0]
 8004466:	4770      	bx	lr

08004468 <RVBS_Clear>:
 8004468:	b510      	push	{r4, lr}
 800446a:	8b82      	ldrh	r2, [r0, #28]
 800446c:	8b43      	ldrh	r3, [r0, #26]
 800446e:	189b      	adds	r3, r3, r2
 8004470:	2200      	movs	r2, #0
 8004472:	085b      	lsrs	r3, r3, #1
 8004474:	8b01      	ldrh	r1, [r0, #24]
 8004476:	4291      	cmp	r1, r2
 8004478:	d805      	bhi.n	8004486 <RVBS_Clear+0x1e>
 800447a:	80c3      	strh	r3, [r0, #6]
 800447c:	8083      	strh	r3, [r0, #4]
 800447e:	2300      	movs	r3, #0
 8004480:	3006      	adds	r0, #6
 8004482:	77c3      	strb	r3, [r0, #31]
 8004484:	bd10      	pop	{r4, pc}
 8004486:	6a01      	ldr	r1, [r0, #32]
 8004488:	0054      	lsls	r4, r2, #1
 800448a:	3201      	adds	r2, #1
 800448c:	5263      	strh	r3, [r4, r1]
 800448e:	b292      	uxth	r2, r2
 8004490:	e7f0      	b.n	8004474 <RVBS_Clear+0xc>

08004492 <RVBS_Init>:
 8004492:	b510      	push	{r4, lr}
 8004494:	0004      	movs	r4, r0
 8004496:	300c      	adds	r0, #12
 8004498:	f7fe fac4 	bl	8002a24 <RCM_RegisterRegConv>
 800449c:	1de3      	adds	r3, r4, #7
 800449e:	77d8      	strb	r0, [r3, #31]
 80044a0:	0020      	movs	r0, r4
 80044a2:	f7ff ffe1 	bl	8004468 <RVBS_Clear>
 80044a6:	bd10      	pop	{r4, pc}

080044a8 <RVBS_CheckFaultState>:
 80044a8:	88c3      	ldrh	r3, [r0, #6]
 80044aa:	8b41      	ldrh	r1, [r0, #26]
 80044ac:	0002      	movs	r2, r0
 80044ae:	2002      	movs	r0, #2
 80044b0:	4299      	cmp	r1, r3
 80044b2:	d304      	bcc.n	80044be <RVBS_CheckFaultState+0x16>
 80044b4:	8b92      	ldrh	r2, [r2, #28]
 80044b6:	4293      	cmp	r3, r2
 80044b8:	419b      	sbcs	r3, r3
 80044ba:	425b      	negs	r3, r3
 80044bc:	0098      	lsls	r0, r3, #2
 80044be:	4770      	bx	lr

080044c0 <RVBS_CalcAvVbus>:
 80044c0:	b5f7      	push	{r0, r1, r2, r4, r5, r6, r7, lr}
 80044c2:	1dc3      	adds	r3, r0, #7
 80044c4:	0004      	movs	r4, r0
 80044c6:	7fd8      	ldrb	r0, [r3, #31]
 80044c8:	f7fe faf4 	bl	8002ab4 <RCM_ExecRegularConv>
 80044cc:	4b13      	ldr	r3, [pc, #76]	@ (800451c <RVBS_CalcAvVbus+0x5c>)
 80044ce:	0006      	movs	r6, r0
 80044d0:	4298      	cmp	r0, r3
 80044d2:	d015      	beq.n	8004500 <RVBS_CalcAvVbus+0x40>
 80044d4:	1da7      	adds	r7, r4, #6
 80044d6:	7ffd      	ldrb	r5, [r7, #31]
 80044d8:	6a22      	ldr	r2, [r4, #32]
 80044da:	006b      	lsls	r3, r5, #1
 80044dc:	5298      	strh	r0, [r3, r2]
 80044de:	8b23      	ldrh	r3, [r4, #24]
 80044e0:	9301      	str	r3, [sp, #4]
 80044e2:	2300      	movs	r3, #0
 80044e4:	0018      	movs	r0, r3
 80044e6:	9901      	ldr	r1, [sp, #4]
 80044e8:	428b      	cmp	r3, r1
 80044ea:	d30e      	bcc.n	800450a <RVBS_CalcAvVbus+0x4a>
 80044ec:	f7fb fe20 	bl	8000130 <__udivsi3>
 80044f0:	9b01      	ldr	r3, [sp, #4]
 80044f2:	80e0      	strh	r0, [r4, #6]
 80044f4:	3b01      	subs	r3, #1
 80044f6:	80a6      	strh	r6, [r4, #4]
 80044f8:	429d      	cmp	r5, r3
 80044fa:	da0c      	bge.n	8004516 <RVBS_CalcAvVbus+0x56>
 80044fc:	3501      	adds	r5, #1
 80044fe:	77fd      	strb	r5, [r7, #31]
 8004500:	0020      	movs	r0, r4
 8004502:	f7ff ffd1 	bl	80044a8 <RVBS_CheckFaultState>
 8004506:	8120      	strh	r0, [r4, #8]
 8004508:	bdfe      	pop	{r1, r2, r3, r4, r5, r6, r7, pc}
 800450a:	0059      	lsls	r1, r3, #1
 800450c:	5a89      	ldrh	r1, [r1, r2]
 800450e:	3301      	adds	r3, #1
 8004510:	1840      	adds	r0, r0, r1
 8004512:	b2db      	uxtb	r3, r3
 8004514:	e7e7      	b.n	80044e6 <RVBS_CalcAvVbus+0x26>
 8004516:	2300      	movs	r3, #0
 8004518:	77fb      	strb	r3, [r7, #31]
 800451a:	e7f1      	b.n	8004500 <RVBS_CalcAvVbus+0x40>
 800451c:	0000ffff 	.word	0x0000ffff

08004520 <REMNG_Init>:
 8004520:	2300      	movs	r3, #0
 8004522:	b510      	push	{r4, lr}
 8004524:	6083      	str	r3, [r0, #8]
 8004526:	6043      	str	r3, [r0, #4]
 8004528:	60c3      	str	r3, [r0, #12]
 800452a:	6103      	str	r3, [r0, #16]
 800452c:	3301      	adds	r3, #1
 800452e:	6143      	str	r3, [r0, #20]
 8004530:	3018      	adds	r0, #24
 8004532:	f000 fbff 	bl	8004d34 <FD_Init>
 8004536:	bd10      	pop	{r4, pc}

08004538 <SPD_GetElAngle>:
 8004538:	2304      	movs	r3, #4
 800453a:	5ec0      	ldrsh	r0, [r0, r3]
 800453c:	4770      	bx	lr

0800453e <SPD_GetMecAngle>:
 800453e:	6880      	ldr	r0, [r0, #8]
 8004540:	4770      	bx	lr

08004542 <SPD_GetAvrgMecSpeedUnit>:
 8004542:	230c      	movs	r3, #12
 8004544:	5ec0      	ldrsh	r0, [r0, r3]
 8004546:	4770      	bx	lr

08004548 <SPD_GetInstElSpeedDpp>:
 8004548:	2310      	movs	r3, #16
 800454a:	5ec0      	ldrsh	r0, [r0, r3]
 800454c:	4770      	bx	lr

0800454e <SPD_IsMecSpeedReliable>:
 800454e:	b570      	push	{r4, r5, r6, lr}
 8004550:	0002      	movs	r2, r0
 8004552:	78c3      	ldrb	r3, [r0, #3]
 8004554:	7804      	ldrb	r4, [r0, #0]
 8004556:	2000      	movs	r0, #0
 8004558:	5e08      	ldrsh	r0, [r1, r0]
 800455a:	b281      	uxth	r1, r0
 800455c:	2800      	cmp	r0, #0
 800455e:	da01      	bge.n	8004564 <SPD_IsMecSpeedReliable+0x16>
 8004560:	4249      	negs	r1, r1
 8004562:	b289      	uxth	r1, r1
 8004564:	8ad6      	ldrh	r6, [r2, #22]
 8004566:	2001      	movs	r0, #1
 8004568:	8a95      	ldrh	r5, [r2, #20]
 800456a:	428e      	cmp	r6, r1
 800456c:	d802      	bhi.n	8004574 <SPD_IsMecSpeedReliable+0x26>
 800456e:	428d      	cmp	r5, r1
 8004570:	4189      	sbcs	r1, r1
 8004572:	4248      	negs	r0, r1
 8004574:	2112      	movs	r1, #18
 8004576:	5e55      	ldrsh	r5, [r2, r1]
 8004578:	b2a9      	uxth	r1, r5
 800457a:	2d00      	cmp	r5, #0
 800457c:	da01      	bge.n	8004582 <SPD_IsMecSpeedReliable+0x34>
 800457e:	4249      	negs	r1, r1
 8004580:	b289      	uxth	r1, r1
 8004582:	8b15      	ldrh	r5, [r2, #24]
 8004584:	428d      	cmp	r5, r1
 8004586:	d301      	bcc.n	800458c <SPD_IsMecSpeedReliable+0x3e>
 8004588:	2800      	cmp	r0, #0
 800458a:	d009      	beq.n	80045a0 <SPD_IsMecSpeedReliable+0x52>
 800458c:	42a3      	cmp	r3, r4
 800458e:	d901      	bls.n	8004594 <SPD_IsMecSpeedReliable+0x46>
 8004590:	3401      	adds	r4, #1
 8004592:	b2e4      	uxtb	r4, r4
 8004594:	1ae3      	subs	r3, r4, r3
 8004596:	1e59      	subs	r1, r3, #1
 8004598:	418b      	sbcs	r3, r1
 800459a:	b2d8      	uxtb	r0, r3
 800459c:	7014      	strb	r4, [r2, #0]
 800459e:	bd70      	pop	{r4, r5, r6, pc}
 80045a0:	42a3      	cmp	r3, r4
 80045a2:	d9f7      	bls.n	8004594 <SPD_IsMecSpeedReliable+0x46>
 80045a4:	0004      	movs	r4, r0
 80045a6:	2001      	movs	r0, #1
 80045a8:	e7f8      	b.n	800459c <SPD_IsMecSpeedReliable+0x4e>

080045aa <STC_Init>:
 80045aa:	0003      	movs	r3, r0
 80045ac:	6142      	str	r2, [r0, #20]
 80045ae:	6101      	str	r1, [r0, #16]
 80045b0:	332a      	adds	r3, #42	@ 0x2a
 80045b2:	781b      	ldrb	r3, [r3, #0]
 80045b4:	7003      	strb	r3, [r0, #0]
 80045b6:	222c      	movs	r2, #44	@ 0x2c
 80045b8:	5e83      	ldrsh	r3, [r0, r2]
 80045ba:	041b      	lsls	r3, r3, #16
 80045bc:	6043      	str	r3, [r0, #4]
 80045be:	222e      	movs	r2, #46	@ 0x2e
 80045c0:	5e83      	ldrsh	r3, [r0, r2]
 80045c2:	041b      	lsls	r3, r3, #16
 80045c4:	6083      	str	r3, [r0, #8]
 80045c6:	2300      	movs	r3, #0
 80045c8:	8043      	strh	r3, [r0, #2]
 80045ca:	60c3      	str	r3, [r0, #12]
 80045cc:	6183      	str	r3, [r0, #24]
 80045ce:	4770      	bx	lr

080045d0 <STC_SetSpeedSensor>:
 80045d0:	6141      	str	r1, [r0, #20]
 80045d2:	4770      	bx	lr

080045d4 <STC_GetSpeedSensor>:
 80045d4:	6940      	ldr	r0, [r0, #20]
 80045d6:	4770      	bx	lr

080045d8 <STC_Clear>:
 80045d8:	7803      	ldrb	r3, [r0, #0]
 80045da:	b510      	push	{r4, lr}
 80045dc:	2b01      	cmp	r3, #1
 80045de:	d103      	bne.n	80045e8 <STC_Clear+0x10>
 80045e0:	2100      	movs	r1, #0
 80045e2:	6900      	ldr	r0, [r0, #16]
 80045e4:	f7ff fa12 	bl	8003a0c <PID_SetIntegralTerm>
 80045e8:	bd10      	pop	{r4, pc}

080045ea <STC_GetTorqueRef>:
 80045ea:	6883      	ldr	r3, [r0, #8]
 80045ec:	17d8      	asrs	r0, r3, #31
 80045ee:	b280      	uxth	r0, r0
 80045f0:	18c0      	adds	r0, r0, r3
 80045f2:	1400      	asrs	r0, r0, #16
 80045f4:	4770      	bx	lr

080045f6 <STC_SetControlMode>:
 80045f6:	2300      	movs	r3, #0
 80045f8:	7001      	strb	r1, [r0, #0]
 80045fa:	60c3      	str	r3, [r0, #12]
 80045fc:	4770      	bx	lr

080045fe <STC_ExecRamp>:
 80045fe:	b5f8      	push	{r3, r4, r5, r6, r7, lr}
 8004600:	7803      	ldrb	r3, [r0, #0]
 8004602:	0004      	movs	r4, r0
 8004604:	000d      	movs	r5, r1
 8004606:	0016      	movs	r6, r2
 8004608:	2b00      	cmp	r3, #0
 800460a:	d109      	bne.n	8004620 <STC_ExecRamp+0x22>
 800460c:	f7ff ffed 	bl	80045ea <STC_GetTorqueRef>
 8004610:	2128      	movs	r1, #40	@ 0x28
 8004612:	5e62      	ldrsh	r2, [r4, r1]
 8004614:	0007      	movs	r7, r0
 8004616:	8ce3      	ldrh	r3, [r4, #38]	@ 0x26
 8004618:	42aa      	cmp	r2, r5
 800461a:	dd12      	ble.n	8004642 <STC_ExecRamp+0x44>
 800461c:	2000      	movs	r0, #0
 800461e:	bdf8      	pop	{r3, r4, r5, r6, r7, pc}
 8004620:	6843      	ldr	r3, [r0, #4]
 8004622:	17df      	asrs	r7, r3, #31
 8004624:	b2bf      	uxth	r7, r7
 8004626:	18ff      	adds	r7, r7, r3
 8004628:	8bc3      	ldrh	r3, [r0, #30]
 800462a:	143f      	asrs	r7, r7, #16
 800462c:	428b      	cmp	r3, r1
 800462e:	dbf5      	blt.n	800461c <STC_ExecRamp+0x1e>
 8004630:	2224      	movs	r2, #36	@ 0x24
 8004632:	5e83      	ldrsh	r3, [r0, r2]
 8004634:	428b      	cmp	r3, r1
 8004636:	dcf1      	bgt.n	800461c <STC_ExecRamp+0x1e>
 8004638:	8c03      	ldrh	r3, [r0, #32]
 800463a:	428b      	cmp	r3, r1
 800463c:	dd03      	ble.n	8004646 <STC_ExecRamp+0x48>
 800463e:	2222      	movs	r2, #34	@ 0x22
 8004640:	5e83      	ldrsh	r3, [r0, r2]
 8004642:	42ab      	cmp	r3, r5
 8004644:	dbea      	blt.n	800461c <STC_ExecRamp+0x1e>
 8004646:	2e00      	cmp	r6, #0
 8004648:	d10b      	bne.n	8004662 <STC_ExecRamp+0x64>
 800464a:	7823      	ldrb	r3, [r4, #0]
 800464c:	042d      	lsls	r5, r5, #16
 800464e:	2b01      	cmp	r3, #1
 8004650:	d105      	bne.n	800465e <STC_ExecRamp+0x60>
 8004652:	6065      	str	r5, [r4, #4]
 8004654:	2000      	movs	r0, #0
 8004656:	61a0      	str	r0, [r4, #24]
 8004658:	60e6      	str	r6, [r4, #12]
 800465a:	2001      	movs	r0, #1
 800465c:	e7df      	b.n	800461e <STC_ExecRamp+0x20>
 800465e:	60a5      	str	r5, [r4, #8]
 8004660:	e7f8      	b.n	8004654 <STC_ExecRamp+0x56>
 8004662:	21fa      	movs	r1, #250	@ 0xfa
 8004664:	8ba0      	ldrh	r0, [r4, #28]
 8004666:	8065      	strh	r5, [r4, #2]
 8004668:	4370      	muls	r0, r6
 800466a:	0089      	lsls	r1, r1, #2
 800466c:	f7fb fd60 	bl	8000130 <__udivsi3>
 8004670:	1c46      	adds	r6, r0, #1
 8004672:	1be8      	subs	r0, r5, r7
 8004674:	0031      	movs	r1, r6
 8004676:	0400      	lsls	r0, r0, #16
 8004678:	f7fb fde4 	bl	8000244 <__divsi3>
 800467c:	e7eb      	b.n	8004656 <STC_ExecRamp+0x58>

0800467e <STC_CalcTorqueReference>:
 800467e:	7802      	ldrb	r2, [r0, #0]
 8004680:	b570      	push	{r4, r5, r6, lr}
 8004682:	0005      	movs	r5, r0
 8004684:	2a00      	cmp	r2, #0
 8004686:	d119      	bne.n	80046bc <STC_CalcTorqueReference+0x3e>
 8004688:	6886      	ldr	r6, [r0, #8]
 800468a:	68eb      	ldr	r3, [r5, #12]
 800468c:	2b01      	cmp	r3, #1
 800468e:	d917      	bls.n	80046c0 <STC_CalcTorqueReference+0x42>
 8004690:	69a9      	ldr	r1, [r5, #24]
 8004692:	3b01      	subs	r3, #1
 8004694:	1876      	adds	r6, r6, r1
 8004696:	60eb      	str	r3, [r5, #12]
 8004698:	17f0      	asrs	r0, r6, #31
 800469a:	b280      	uxth	r0, r0
 800469c:	1980      	adds	r0, r0, r6
 800469e:	1404      	asrs	r4, r0, #16
 80046a0:	2a01      	cmp	r2, #1
 80046a2:	d114      	bne.n	80046ce <STC_CalcTorqueReference+0x50>
 80046a4:	6968      	ldr	r0, [r5, #20]
 80046a6:	f7ff ff4c 	bl	8004542 <SPD_GetAvrgMecSpeedUnit>
 80046aa:	1a21      	subs	r1, r4, r0
 80046ac:	b209      	sxth	r1, r1
 80046ae:	6928      	ldr	r0, [r5, #16]
 80046b0:	f7ff f9ae 	bl	8003a10 <PI_Controller>
 80046b4:	606e      	str	r6, [r5, #4]
 80046b6:	0406      	lsls	r6, r0, #16
 80046b8:	60ae      	str	r6, [r5, #8]
 80046ba:	bd70      	pop	{r4, r5, r6, pc}
 80046bc:	6846      	ldr	r6, [r0, #4]
 80046be:	e7e4      	b.n	800468a <STC_CalcTorqueReference+0xc>
 80046c0:	2b01      	cmp	r3, #1
 80046c2:	d1e9      	bne.n	8004698 <STC_CalcTorqueReference+0x1a>
 80046c4:	2302      	movs	r3, #2
 80046c6:	5eee      	ldrsh	r6, [r5, r3]
 80046c8:	2300      	movs	r3, #0
 80046ca:	0436      	lsls	r6, r6, #16
 80046cc:	e7e3      	b.n	8004696 <STC_CalcTorqueReference+0x18>
 80046ce:	b220      	sxth	r0, r4
 80046d0:	e7f2      	b.n	80046b8 <STC_CalcTorqueReference+0x3a>

080046d2 <STC_GetMecSpeedRefUnitDefault>:
 80046d2:	232c      	movs	r3, #44	@ 0x2c
 80046d4:	5ec0      	ldrsh	r0, [r0, r3]
 80046d6:	4770      	bx	lr

080046d8 <STC_GetDefaultIqdref>:
 80046d8:	8e02      	ldrh	r2, [r0, #48]	@ 0x30
 80046da:	8dc3      	ldrh	r3, [r0, #46]	@ 0x2e
 80046dc:	0412      	lsls	r2, r2, #16
 80046de:	b298      	uxth	r0, r3
 80046e0:	b082      	sub	sp, #8
 80046e2:	4310      	orrs	r0, r2
 80046e4:	b002      	add	sp, #8
 80046e6:	4770      	bx	lr

080046e8 <STC_ForceSpeedReferenceToCurrentSpeed>:
 80046e8:	b510      	push	{r4, lr}
 80046ea:	0004      	movs	r4, r0
 80046ec:	6940      	ldr	r0, [r0, #20]
 80046ee:	f7ff ff28 	bl	8004542 <SPD_GetAvrgMecSpeedUnit>
 80046f2:	0400      	lsls	r0, r0, #16
 80046f4:	6060      	str	r0, [r4, #4]
 80046f6:	bd10      	pop	{r4, pc}

080046f8 <STM_Init>:
 80046f8:	2300      	movs	r3, #0
 80046fa:	7003      	strb	r3, [r0, #0]
 80046fc:	8043      	strh	r3, [r0, #2]
 80046fe:	8083      	strh	r3, [r0, #4]
 8004700:	4770      	bx	lr

08004702 <STM_FaultProcessing>:
 8004702:	0003      	movs	r3, r0
 8004704:	b510      	push	{r4, lr}
 8004706:	885c      	ldrh	r4, [r3, #2]
 8004708:	7800      	ldrb	r0, [r0, #0]
 800470a:	430c      	orrs	r4, r1
 800470c:	4394      	bics	r4, r2
 800470e:	0022      	movs	r2, r4
 8004710:	805c      	strh	r4, [r3, #2]
 8004712:	889c      	ldrh	r4, [r3, #4]
 8004714:	4321      	orrs	r1, r4
 8004716:	8099      	strh	r1, [r3, #4]
 8004718:	280a      	cmp	r0, #10
 800471a:	d106      	bne.n	800472a <STM_FaultProcessing+0x28>
 800471c:	2a00      	cmp	r2, #0
 800471e:	d001      	beq.n	8004724 <STM_FaultProcessing+0x22>
 8004720:	200a      	movs	r0, #10
 8004722:	bd10      	pop	{r4, pc}
 8004724:	200b      	movs	r0, #11
 8004726:	7018      	strb	r0, [r3, #0]
 8004728:	e7fb      	b.n	8004722 <STM_FaultProcessing+0x20>
 800472a:	2a00      	cmp	r2, #0
 800472c:	d0f9      	beq.n	8004722 <STM_FaultProcessing+0x20>
 800472e:	220a      	movs	r2, #10
 8004730:	701a      	strb	r2, [r3, #0]
 8004732:	e7f5      	b.n	8004720 <STM_FaultProcessing+0x1e>

08004734 <STM_NextState>:
 8004734:	0003      	movs	r3, r0
 8004736:	7800      	ldrb	r0, [r0, #0]
 8004738:	b510      	push	{r4, lr}
 800473a:	2814      	cmp	r0, #20
 800473c:	d80e      	bhi.n	800475c <STM_NextState+0x28>
 800473e:	f7fb fced 	bl	800011c <__gnu_thumb1_case_uqi>
 8004742:	251b      	.short	0x251b
 8004744:	5e523a2e 	.word	0x5e523a2e
 8004748:	6663602e 	.word	0x6663602e
 800474c:	2c0b0d0d 	.word	0x2c0b0d0d
 8004750:	46433731 	.word	0x46433731
 8004754:	5a4f      	.short	0x5a4f
 8004756:	4c          	.byte	0x4c
 8004757:	00          	.byte	0x00
 8004758:	2900      	cmp	r1, #0
 800475a:	d014      	beq.n	8004786 <STM_NextState+0x52>
 800475c:	2202      	movs	r2, #2
 800475e:	0008      	movs	r0, r1
 8004760:	4390      	bics	r0, r2
 8004762:	2801      	cmp	r0, #1
 8004764:	d006      	beq.n	8004774 <STM_NextState+0x40>
 8004766:	2907      	cmp	r1, #7
 8004768:	d004      	beq.n	8004774 <STM_NextState+0x40>
 800476a:	2200      	movs	r2, #0
 800476c:	2180      	movs	r1, #128	@ 0x80
 800476e:	0018      	movs	r0, r3
 8004770:	f7ff ffc7 	bl	8004702 <STM_FaultProcessing>
 8004774:	2000      	movs	r0, #0
 8004776:	e008      	b.n	800478a <STM_NextState+0x56>
 8004778:	2202      	movs	r2, #2
 800477a:	0008      	movs	r0, r1
 800477c:	4390      	bics	r0, r2
 800477e:	2801      	cmp	r0, #1
 8004780:	d001      	beq.n	8004786 <STM_NextState+0x52>
 8004782:	290c      	cmp	r1, #12
 8004784:	d1ef      	bne.n	8004766 <STM_NextState+0x32>
 8004786:	2001      	movs	r0, #1
 8004788:	7019      	strb	r1, [r3, #0]
 800478a:	bd10      	pop	{r4, pc}
 800478c:	2907      	cmp	r1, #7
 800478e:	d0fa      	beq.n	8004786 <STM_NextState+0x52>
 8004790:	000a      	movs	r2, r1
 8004792:	3a0d      	subs	r2, #13
 8004794:	2a01      	cmp	r2, #1
 8004796:	d8e1      	bhi.n	800475c <STM_NextState+0x28>
 8004798:	e7f5      	b.n	8004786 <STM_NextState+0x52>
 800479a:	290e      	cmp	r1, #14
 800479c:	d0f3      	beq.n	8004786 <STM_NextState+0x52>
 800479e:	2907      	cmp	r1, #7
 80047a0:	d1dc      	bne.n	800475c <STM_NextState+0x28>
 80047a2:	e7f0      	b.n	8004786 <STM_NextState+0x52>
 80047a4:	2208      	movs	r2, #8
 80047a6:	0008      	movs	r0, r1
 80047a8:	4390      	bics	r0, r2
 80047aa:	2807      	cmp	r0, #7
 80047ac:	d1d6      	bne.n	800475c <STM_NextState+0x28>
 80047ae:	e7ea      	b.n	8004786 <STM_NextState+0x52>
 80047b0:	2902      	cmp	r1, #2
 80047b2:	d1f4      	bne.n	800479e <STM_NextState+0x6a>
 80047b4:	e7e7      	b.n	8004786 <STM_NextState+0x52>
 80047b6:	2907      	cmp	r1, #7
 80047b8:	d0e5      	beq.n	8004786 <STM_NextState+0x52>
 80047ba:	2911      	cmp	r1, #17
 80047bc:	d8ce      	bhi.n	800475c <STM_NextState+0x28>
 80047be:	4a16      	ldr	r2, [pc, #88]	@ (8004818 <STM_NextState+0xe4>)
 80047c0:	40ca      	lsrs	r2, r1
 80047c2:	07d2      	lsls	r2, r2, #31
 80047c4:	d5ca      	bpl.n	800475c <STM_NextState+0x28>
 80047c6:	e7de      	b.n	8004786 <STM_NextState+0x52>
 80047c8:	2911      	cmp	r1, #17
 80047ca:	d1e8      	bne.n	800479e <STM_NextState+0x6a>
 80047cc:	e7db      	b.n	8004786 <STM_NextState+0x52>
 80047ce:	000a      	movs	r2, r1
 80047d0:	20fd      	movs	r0, #253	@ 0xfd
 80047d2:	3a12      	subs	r2, #18
 80047d4:	4202      	tst	r2, r0
 80047d6:	d1e2      	bne.n	800479e <STM_NextState+0x6a>
 80047d8:	e7d5      	b.n	8004786 <STM_NextState+0x52>
 80047da:	2912      	cmp	r1, #18
 80047dc:	d1df      	bne.n	800479e <STM_NextState+0x6a>
 80047de:	e7d2      	b.n	8004786 <STM_NextState+0x52>
 80047e0:	2904      	cmp	r1, #4
 80047e2:	d1dc      	bne.n	800479e <STM_NextState+0x6a>
 80047e4:	e7cf      	b.n	8004786 <STM_NextState+0x52>
 80047e6:	2913      	cmp	r1, #19
 80047e8:	d0cd      	beq.n	8004786 <STM_NextState+0x52>
 80047ea:	2202      	movs	r2, #2
 80047ec:	0008      	movs	r0, r1
 80047ee:	4390      	bics	r0, r2
 80047f0:	2805      	cmp	r0, #5
 80047f2:	d1b3      	bne.n	800475c <STM_NextState+0x28>
 80047f4:	e7c7      	b.n	8004786 <STM_NextState+0x52>
 80047f6:	1f0a      	subs	r2, r1, #4
 80047f8:	2a01      	cmp	r2, #1
 80047fa:	d8d0      	bhi.n	800479e <STM_NextState+0x6a>
 80047fc:	e7c3      	b.n	8004786 <STM_NextState+0x52>
 80047fe:	1f8a      	subs	r2, r1, #6
 8004800:	e7c8      	b.n	8004794 <STM_NextState+0x60>
 8004802:	2908      	cmp	r1, #8
 8004804:	d1aa      	bne.n	800475c <STM_NextState+0x28>
 8004806:	e7be      	b.n	8004786 <STM_NextState+0x52>
 8004808:	2909      	cmp	r1, #9
 800480a:	d1a7      	bne.n	800475c <STM_NextState+0x28>
 800480c:	e7bb      	b.n	8004786 <STM_NextState+0x52>
 800480e:	2900      	cmp	r1, #0
 8004810:	d0b9      	beq.n	8004786 <STM_NextState+0x52>
 8004812:	290c      	cmp	r1, #12
 8004814:	d1a2      	bne.n	800475c <STM_NextState+0x28>
 8004816:	e7b6      	b.n	8004786 <STM_NextState+0x52>
 8004818:	00030012 	.word	0x00030012

0800481c <STM_GetState>:
 800481c:	7800      	ldrb	r0, [r0, #0]
 800481e:	4770      	bx	lr

08004820 <STM_FaultAcknowledged>:
 8004820:	7802      	ldrb	r2, [r0, #0]
 8004822:	0003      	movs	r3, r0
 8004824:	2000      	movs	r0, #0
 8004826:	2a0b      	cmp	r2, #11
 8004828:	d103      	bne.n	8004832 <STM_FaultAcknowledged+0x12>
 800482a:	3a02      	subs	r2, #2
 800482c:	8098      	strh	r0, [r3, #4]
 800482e:	701a      	strb	r2, [r3, #0]
 8004830:	3001      	adds	r0, #1
 8004832:	4770      	bx	lr

08004834 <STM_GetFaultState>:
 8004834:	8883      	ldrh	r3, [r0, #4]
 8004836:	8840      	ldrh	r0, [r0, #2]
 8004838:	0400      	lsls	r0, r0, #16
 800483a:	4318      	orrs	r0, r3
 800483c:	4770      	bx	lr

0800483e <TC_Init>:
 800483e:	b530      	push	{r4, r5, lr}
 8004840:	2400      	movs	r4, #0
 8004842:	6004      	str	r4, [r0, #0]
 8004844:	60c4      	str	r4, [r0, #12]
 8004846:	6104      	str	r4, [r0, #16]
 8004848:	6144      	str	r4, [r0, #20]
 800484a:	6184      	str	r4, [r0, #24]
 800484c:	61c4      	str	r4, [r0, #28]
 800484e:	6204      	str	r4, [r0, #32]
 8004850:	6244      	str	r4, [r0, #36]	@ 0x24
 8004852:	6284      	str	r4, [r0, #40]	@ 0x28
 8004854:	62c4      	str	r4, [r0, #44]	@ 0x2c
 8004856:	6344      	str	r4, [r0, #52]	@ 0x34
 8004858:	6384      	str	r4, [r0, #56]	@ 0x38
 800485a:	63c4      	str	r4, [r0, #60]	@ 0x3c
 800485c:	6404      	str	r4, [r0, #64]	@ 0x40
 800485e:	6444      	str	r4, [r0, #68]	@ 0x44
 8004860:	6484      	str	r4, [r0, #72]	@ 0x48
 8004862:	64c4      	str	r4, [r0, #76]	@ 0x4c
 8004864:	0004      	movs	r4, r0
 8004866:	2500      	movs	r5, #0
 8004868:	3450      	adds	r4, #80	@ 0x50
 800486a:	6585      	str	r5, [r0, #88]	@ 0x58
 800486c:	8025      	strh	r5, [r4, #0]
 800486e:	7425      	strb	r5, [r4, #16]
 8004870:	3054      	adds	r0, #84	@ 0x54
 8004872:	6103      	str	r3, [r0, #16]
 8004874:	6142      	str	r2, [r0, #20]
 8004876:	6181      	str	r1, [r0, #24]
 8004878:	8005      	strh	r5, [r0, #0]
 800487a:	bd30      	pop	{r4, r5, pc}

0800487c <TC_MoveCommand>:
 800487c:	b5f0      	push	{r4, r5, r6, r7, lr}
 800487e:	1c1d      	adds	r5, r3, #0
 8004880:	0003      	movs	r3, r0
 8004882:	b085      	sub	sp, #20
 8004884:	3360      	adds	r3, #96	@ 0x60
 8004886:	9201      	str	r2, [sp, #4]
 8004888:	9302      	str	r3, [sp, #8]
 800488a:	781b      	ldrb	r3, [r3, #0]
 800488c:	0004      	movs	r4, r0
 800488e:	1c0f      	adds	r7, r1, #0
 8004890:	2b03      	cmp	r3, #3
 8004892:	d108      	bne.n	80048a6 <TC_MoveCommand+0x2a>
 8004894:	2100      	movs	r1, #0
 8004896:	1c28      	adds	r0, r5, #0
 8004898:	f7fb fde6 	bl	8000468 <__aeabi_fcmpgt>
 800489c:	1e06      	subs	r6, r0, #0
 800489e:	d10b      	bne.n	80048b8 <TC_MoveCommand+0x3c>
 80048a0:	0030      	movs	r0, r6
 80048a2:	b005      	add	sp, #20
 80048a4:	bdf0      	pop	{r4, r5, r6, r7, pc}
 80048a6:	2600      	movs	r6, #0
 80048a8:	42b3      	cmp	r3, r6
 80048aa:	d1f9      	bne.n	80048a0 <TC_MoveCommand+0x24>
 80048ac:	2100      	movs	r1, #0
 80048ae:	1c28      	adds	r0, r5, #0
 80048b0:	f7fb fdda 	bl	8000468 <__aeabi_fcmpgt>
 80048b4:	42b0      	cmp	r0, r6
 80048b6:	d0f3      	beq.n	80048a0 <TC_MoveCommand+0x24>
 80048b8:	0023      	movs	r3, r4
 80048ba:	2601      	movs	r6, #1
 80048bc:	3351      	adds	r3, #81	@ 0x51
 80048be:	701e      	strb	r6, [r3, #0]
 80048c0:	492d      	ldr	r1, [pc, #180]	@ (8004978 <TC_MoveCommand+0xfc>)
 80048c2:	6b20      	ldr	r0, [r4, #48]	@ 0x30
 80048c4:	f7fc f954 	bl	8000b70 <__aeabi_fmul>
 80048c8:	1c01      	adds	r1, r0, #0
 80048ca:	9003      	str	r0, [sp, #12]
 80048cc:	1c28      	adds	r0, r5, #0
 80048ce:	f7fb ff69 	bl	80007a4 <__aeabi_fdiv>
 80048d2:	f7fc fc2f 	bl	8001134 <__aeabi_f2iz>
 80048d6:	f7fc fc4d 	bl	8001174 <__aeabi_i2f>
 80048da:	9903      	ldr	r1, [sp, #12]
 80048dc:	f7fc f948 	bl	8000b70 <__aeabi_fmul>
 80048e0:	9b01      	ldr	r3, [sp, #4]
 80048e2:	1c05      	adds	r5, r0, #0
 80048e4:	1c19      	adds	r1, r3, #0
 80048e6:	60e3      	str	r3, [r4, #12]
 80048e8:	6020      	str	r0, [r4, #0]
 80048ea:	6067      	str	r7, [r4, #4]
 80048ec:	1c38      	adds	r0, r7, #0
 80048ee:	f7fb fdcf 	bl	8000490 <__aeabi_fadd>
 80048f2:	4921      	ldr	r1, [pc, #132]	@ (8004978 <TC_MoveCommand+0xfc>)
 80048f4:	60a0      	str	r0, [r4, #8]
 80048f6:	1c28      	adds	r0, r5, #0
 80048f8:	f7fb ff54 	bl	80007a4 <__aeabi_fdiv>
 80048fc:	1c01      	adds	r1, r0, #0
 80048fe:	62a0      	str	r0, [r4, #40]	@ 0x28
 8004900:	6120      	str	r0, [r4, #16]
 8004902:	1c05      	adds	r5, r0, #0
 8004904:	f7fb fdc4 	bl	8000490 <__aeabi_fadd>
 8004908:	491c      	ldr	r1, [pc, #112]	@ (800497c <TC_MoveCommand+0x100>)
 800490a:	6160      	str	r0, [r4, #20]
 800490c:	1c28      	adds	r0, r5, #0
 800490e:	f7fc f92f 	bl	8000b70 <__aeabi_fmul>
 8004912:	491b      	ldr	r1, [pc, #108]	@ (8004980 <TC_MoveCommand+0x104>)
 8004914:	61a0      	str	r0, [r4, #24]
 8004916:	1c28      	adds	r0, r5, #0
 8004918:	f7fc f92a 	bl	8000b70 <__aeabi_fmul>
 800491c:	4919      	ldr	r1, [pc, #100]	@ (8004984 <TC_MoveCommand+0x108>)
 800491e:	61e0      	str	r0, [r4, #28]
 8004920:	1c28      	adds	r0, r5, #0
 8004922:	f7fc f925 	bl	8000b70 <__aeabi_fmul>
 8004926:	2182      	movs	r1, #130	@ 0x82
 8004928:	6220      	str	r0, [r4, #32]
 800492a:	05c9      	lsls	r1, r1, #23
 800492c:	1c28      	adds	r0, r5, #0
 800492e:	f7fc f91f 	bl	8000b70 <__aeabi_fmul>
 8004932:	4915      	ldr	r1, [pc, #84]	@ (8004988 <TC_MoveCommand+0x10c>)
 8004934:	6260      	str	r0, [r4, #36]	@ 0x24
 8004936:	1c28      	adds	r0, r5, #0
 8004938:	f7fc f91a 	bl	8000b70 <__aeabi_fmul>
 800493c:	1c29      	adds	r1, r5, #0
 800493e:	f7fc f917 	bl	8000b70 <__aeabi_fmul>
 8004942:	1c29      	adds	r1, r5, #0
 8004944:	f7fc f914 	bl	8000b70 <__aeabi_fmul>
 8004948:	1c01      	adds	r1, r0, #0
 800494a:	9801      	ldr	r0, [sp, #4]
 800494c:	f7fb ff2a 	bl	80007a4 <__aeabi_fdiv>
 8004950:	1c01      	adds	r1, r0, #0
 8004952:	6360      	str	r0, [r4, #52]	@ 0x34
 8004954:	f7fb fd9c 	bl	8000490 <__aeabi_fadd>
 8004958:	1c29      	adds	r1, r5, #0
 800495a:	f7fc f909 	bl	8000b70 <__aeabi_fmul>
 800495e:	1c29      	adds	r1, r5, #0
 8004960:	f7fc f906 	bl	8000b70 <__aeabi_fmul>
 8004964:	2300      	movs	r3, #0
 8004966:	62e3      	str	r3, [r4, #44]	@ 0x2c
 8004968:	6423      	str	r3, [r4, #64]	@ 0x40
 800496a:	63e3      	str	r3, [r4, #60]	@ 0x3c
 800496c:	9b02      	ldr	r3, [sp, #8]
 800496e:	63a0      	str	r0, [r4, #56]	@ 0x38
 8004970:	64a7      	str	r7, [r4, #72]	@ 0x48
 8004972:	701e      	strb	r6, [r3, #0]
 8004974:	e794      	b.n	80048a0 <TC_MoveCommand+0x24>
 8004976:	46c0      	nop			@ (mov r8, r8)
 8004978:	41100000 	.word	0x41100000
 800497c:	40400000 	.word	0x40400000
 8004980:	40c00000 	.word	0x40c00000
 8004984:	40e00000 	.word	0x40e00000
 8004988:	41400000 	.word	0x41400000

0800498c <TC_FollowCommand>:
 800498c:	0003      	movs	r3, r0
 800498e:	b5f7      	push	{r0, r1, r2, r4, r5, r6, r7, lr}
 8004990:	3350      	adds	r3, #80	@ 0x50
 8004992:	9301      	str	r3, [sp, #4]
 8004994:	781e      	ldrb	r6, [r3, #0]
 8004996:	0004      	movs	r4, r0
 8004998:	1c0f      	adds	r7, r1, #0
 800499a:	2e00      	cmp	r6, #0
 800499c:	d10f      	bne.n	80049be <TC_FollowCommand+0x32>
 800499e:	2500      	movs	r5, #0
 80049a0:	1c28      	adds	r0, r5, #0
 80049a2:	64e7      	str	r7, [r4, #76]	@ 0x4c
 80049a4:	6465      	str	r5, [r4, #68]	@ 0x44
 80049a6:	2e01      	cmp	r6, #1
 80049a8:	d802      	bhi.n	80049b0 <TC_FollowCommand+0x24>
 80049aa:	9b01      	ldr	r3, [sp, #4]
 80049ac:	3601      	adds	r6, #1
 80049ae:	701e      	strb	r6, [r3, #0]
 80049b0:	2303      	movs	r3, #3
 80049b2:	6425      	str	r5, [r4, #64]	@ 0x40
 80049b4:	64a7      	str	r7, [r4, #72]	@ 0x48
 80049b6:	63e0      	str	r0, [r4, #60]	@ 0x3c
 80049b8:	3460      	adds	r4, #96	@ 0x60
 80049ba:	7023      	strb	r3, [r4, #0]
 80049bc:	bdf7      	pop	{r0, r1, r2, r4, r5, r6, r7, pc}
 80049be:	6d80      	ldr	r0, [r0, #88]	@ 0x58
 80049c0:	f7fc fc24 	bl	800120c <__aeabi_ui2f>
 80049c4:	6de1      	ldr	r1, [r4, #92]	@ 0x5c
 80049c6:	f7fc f8d3 	bl	8000b70 <__aeabi_fmul>
 80049ca:	2300      	movs	r3, #0
 80049cc:	2100      	movs	r1, #0
 80049ce:	65a3      	str	r3, [r4, #88]	@ 0x58
 80049d0:	9000      	str	r0, [sp, #0]
 80049d2:	f7fb fd49 	bl	8000468 <__aeabi_fcmpgt>
 80049d6:	2800      	cmp	r0, #0
 80049d8:	d0e1      	beq.n	800499e <TC_FollowCommand+0x12>
 80049da:	6ce1      	ldr	r1, [r4, #76]	@ 0x4c
 80049dc:	1c38      	adds	r0, r7, #0
 80049de:	f7fc fa05 	bl	8000dec <__aeabi_fsub>
 80049e2:	9900      	ldr	r1, [sp, #0]
 80049e4:	f7fb fede 	bl	80007a4 <__aeabi_fdiv>
 80049e8:	1c05      	adds	r5, r0, #0
 80049ea:	2000      	movs	r0, #0
 80049ec:	2e01      	cmp	r6, #1
 80049ee:	d0d8      	beq.n	80049a2 <TC_FollowCommand+0x16>
 80049f0:	6c61      	ldr	r1, [r4, #68]	@ 0x44
 80049f2:	1c28      	adds	r0, r5, #0
 80049f4:	f7fc f9fa 	bl	8000dec <__aeabi_fsub>
 80049f8:	9900      	ldr	r1, [sp, #0]
 80049fa:	f7fb fed3 	bl	80007a4 <__aeabi_fdiv>
 80049fe:	e7d0      	b.n	80049a2 <TC_FollowCommand+0x16>

08004a00 <TC_FollowExecution>:
 8004a00:	b570      	push	{r4, r5, r6, lr}
 8004a02:	0004      	movs	r4, r0
 8004a04:	6b05      	ldr	r5, [r0, #48]	@ 0x30
 8004a06:	6bc1      	ldr	r1, [r0, #60]	@ 0x3c
 8004a08:	1c28      	adds	r0, r5, #0
 8004a0a:	f7fc f8b1 	bl	8000b70 <__aeabi_fmul>
 8004a0e:	6c21      	ldr	r1, [r4, #64]	@ 0x40
 8004a10:	f7fb fd3e 	bl	8000490 <__aeabi_fadd>
 8004a14:	1c01      	adds	r1, r0, #0
 8004a16:	6420      	str	r0, [r4, #64]	@ 0x40
 8004a18:	1c28      	adds	r0, r5, #0
 8004a1a:	f7fc f8a9 	bl	8000b70 <__aeabi_fmul>
 8004a1e:	1c01      	adds	r1, r0, #0
 8004a20:	6ca0      	ldr	r0, [r4, #72]	@ 0x48
 8004a22:	f7fb fd35 	bl	8000490 <__aeabi_fadd>
 8004a26:	64a0      	str	r0, [r4, #72]	@ 0x48
 8004a28:	bd70      	pop	{r4, r5, r6, pc}
	...

08004a2c <TC_EncAlignmentCommand>:
 8004a2c:	b570      	push	{r4, r5, r6, lr}
 8004a2e:	0005      	movs	r5, r0
 8004a30:	3562      	adds	r5, #98	@ 0x62
 8004a32:	782b      	ldrb	r3, [r5, #0]
 8004a34:	0004      	movs	r4, r0
 8004a36:	2b02      	cmp	r3, #2
 8004a38:	d103      	bne.n	8004a42 <TC_EncAlignmentCommand+0x16>
 8004a3a:	2300      	movs	r3, #0
 8004a3c:	3460      	adds	r4, #96	@ 0x60
 8004a3e:	7023      	strb	r3, [r4, #0]
 8004a40:	e01b      	b.n	8004a7a <TC_EncAlignmentCommand+0x4e>
 8004a42:	0003      	movs	r3, r0
 8004a44:	3361      	adds	r3, #97	@ 0x61
 8004a46:	781a      	ldrb	r2, [r3, #0]
 8004a48:	2300      	movs	r3, #0
 8004a4a:	2a04      	cmp	r2, #4
 8004a4c:	d116      	bne.n	8004a7c <TC_EncAlignmentCommand+0x50>
 8004a4e:	0002      	movs	r2, r0
 8004a50:	3252      	adds	r2, #82	@ 0x52
 8004a52:	7013      	strb	r3, [r2, #0]
 8004a54:	6e80      	ldr	r0, [r0, #104]	@ 0x68
 8004a56:	f7ff fdbd 	bl	80045d4 <STC_GetSpeedSensor>
 8004a5a:	f7ff fd70 	bl	800453e <SPD_GetMecAngle>
 8004a5e:	f7fc fb89 	bl	8001174 <__aeabi_i2f>
 8004a62:	490b      	ldr	r1, [pc, #44]	@ (8004a90 <TC_EncAlignmentCommand+0x64>)
 8004a64:	f7fb fe9e 	bl	80007a4 <__aeabi_fdiv>
 8004a68:	2380      	movs	r3, #128	@ 0x80
 8004a6a:	1c01      	adds	r1, r0, #0
 8004a6c:	05db      	lsls	r3, r3, #23
 8004a6e:	0020      	movs	r0, r4
 8004a70:	4a08      	ldr	r2, [pc, #32]	@ (8004a94 <TC_EncAlignmentCommand+0x68>)
 8004a72:	f7ff ff03 	bl	800487c <TC_MoveCommand>
 8004a76:	2301      	movs	r3, #1
 8004a78:	702b      	strb	r3, [r5, #0]
 8004a7a:	bd70      	pop	{r4, r5, r6, pc}
 8004a7c:	6e42      	ldr	r2, [r0, #100]	@ 0x64
 8004a7e:	3451      	adds	r4, #81	@ 0x51
 8004a80:	6093      	str	r3, [r2, #8]
 8004a82:	2202      	movs	r2, #2
 8004a84:	702a      	strb	r2, [r5, #0]
 8004a86:	0002      	movs	r2, r0
 8004a88:	3260      	adds	r2, #96	@ 0x60
 8004a8a:	7013      	strb	r3, [r2, #0]
 8004a8c:	2301      	movs	r3, #1
 8004a8e:	e7d6      	b.n	8004a3e <TC_EncAlignmentCommand+0x12>
 8004a90:	4622f983 	.word	0x4622f983
 8004a94:	40c90fdb 	.word	0x40c90fdb

08004a98 <TC_RampCompleted>:
 8004a98:	b510      	push	{r4, lr}
 8004a9a:	6b01      	ldr	r1, [r0, #48]	@ 0x30
 8004a9c:	0004      	movs	r4, r0
 8004a9e:	6800      	ldr	r0, [r0, #0]
 8004aa0:	f7fb fcf6 	bl	8000490 <__aeabi_fadd>
 8004aa4:	1c01      	adds	r1, r0, #0
 8004aa6:	6ae0      	ldr	r0, [r4, #44]	@ 0x2c
 8004aa8:	f7fb fcde 	bl	8000468 <__aeabi_fcmpgt>
 8004aac:	1e43      	subs	r3, r0, #1
 8004aae:	4198      	sbcs	r0, r3
 8004ab0:	bd10      	pop	{r4, pc}

08004ab2 <TC_MoveExecution>:
 8004ab2:	b5f8      	push	{r3, r4, r5, r6, r7, lr}
 8004ab4:	0004      	movs	r4, r0
 8004ab6:	6ac5      	ldr	r5, [r0, #44]	@ 0x2c
 8004ab8:	6901      	ldr	r1, [r0, #16]
 8004aba:	1c28      	adds	r0, r5, #0
 8004abc:	0027      	movs	r7, r4
 8004abe:	f7fb fcbf 	bl	8000440 <__aeabi_fcmplt>
 8004ac2:	3760      	adds	r7, #96	@ 0x60
 8004ac4:	2800      	cmp	r0, #0
 8004ac6:	d030      	beq.n	8004b2a <TC_MoveExecution+0x78>
 8004ac8:	6b60      	ldr	r0, [r4, #52]	@ 0x34
 8004aca:	783b      	ldrb	r3, [r7, #0]
 8004acc:	6b26      	ldr	r6, [r4, #48]	@ 0x30
 8004ace:	2b01      	cmp	r3, #1
 8004ad0:	d115      	bne.n	8004afe <TC_MoveExecution+0x4c>
 8004ad2:	1c31      	adds	r1, r6, #0
 8004ad4:	f7fc f84c 	bl	8000b70 <__aeabi_fmul>
 8004ad8:	6be1      	ldr	r1, [r4, #60]	@ 0x3c
 8004ada:	f7fb fcd9 	bl	8000490 <__aeabi_fadd>
 8004ade:	1c31      	adds	r1, r6, #0
 8004ae0:	63e0      	str	r0, [r4, #60]	@ 0x3c
 8004ae2:	f7fc f845 	bl	8000b70 <__aeabi_fmul>
 8004ae6:	6c21      	ldr	r1, [r4, #64]	@ 0x40
 8004ae8:	f7fb fcd2 	bl	8000490 <__aeabi_fadd>
 8004aec:	1c31      	adds	r1, r6, #0
 8004aee:	6420      	str	r0, [r4, #64]	@ 0x40
 8004af0:	f7fc f83e 	bl	8000b70 <__aeabi_fmul>
 8004af4:	1c01      	adds	r1, r0, #0
 8004af6:	6ca0      	ldr	r0, [r4, #72]	@ 0x48
 8004af8:	f7fb fcca 	bl	8000490 <__aeabi_fadd>
 8004afc:	64a0      	str	r0, [r4, #72]	@ 0x48
 8004afe:	1c31      	adds	r1, r6, #0
 8004b00:	1c28      	adds	r0, r5, #0
 8004b02:	f7fb fcc5 	bl	8000490 <__aeabi_fadd>
 8004b06:	62e0      	str	r0, [r4, #44]	@ 0x2c
 8004b08:	0020      	movs	r0, r4
 8004b0a:	f7ff ffc5 	bl	8004a98 <TC_RampCompleted>
 8004b0e:	2800      	cmp	r0, #0
 8004b10:	d00a      	beq.n	8004b28 <TC_MoveExecution+0x76>
 8004b12:	0023      	movs	r3, r4
 8004b14:	3362      	adds	r3, #98	@ 0x62
 8004b16:	781a      	ldrb	r2, [r3, #0]
 8004b18:	2a01      	cmp	r2, #1
 8004b1a:	d101      	bne.n	8004b20 <TC_MoveExecution+0x6e>
 8004b1c:	3204      	adds	r2, #4
 8004b1e:	701a      	strb	r2, [r3, #0]
 8004b20:	2300      	movs	r3, #0
 8004b22:	62e3      	str	r3, [r4, #44]	@ 0x2c
 8004b24:	2300      	movs	r3, #0
 8004b26:	703b      	strb	r3, [r7, #0]
 8004b28:	bdf8      	pop	{r3, r4, r5, r6, r7, pc}
 8004b2a:	6961      	ldr	r1, [r4, #20]
 8004b2c:	1c28      	adds	r0, r5, #0
 8004b2e:	f7fb fc87 	bl	8000440 <__aeabi_fcmplt>
 8004b32:	2800      	cmp	r0, #0
 8004b34:	d114      	bne.n	8004b60 <TC_MoveExecution+0xae>
 8004b36:	69a1      	ldr	r1, [r4, #24]
 8004b38:	1c28      	adds	r0, r5, #0
 8004b3a:	f7fb fc81 	bl	8000440 <__aeabi_fcmplt>
 8004b3e:	2800      	cmp	r0, #0
 8004b40:	d004      	beq.n	8004b4c <TC_MoveExecution+0x9a>
 8004b42:	2380      	movs	r3, #128	@ 0x80
 8004b44:	6b60      	ldr	r0, [r4, #52]	@ 0x34
 8004b46:	061b      	lsls	r3, r3, #24
 8004b48:	18c0      	adds	r0, r0, r3
 8004b4a:	e7be      	b.n	8004aca <TC_MoveExecution+0x18>
 8004b4c:	69e1      	ldr	r1, [r4, #28]
 8004b4e:	1c28      	adds	r0, r5, #0
 8004b50:	f7fb fc76 	bl	8000440 <__aeabi_fcmplt>
 8004b54:	2800      	cmp	r0, #0
 8004b56:	d005      	beq.n	8004b64 <TC_MoveExecution+0xb2>
 8004b58:	2300      	movs	r3, #0
 8004b5a:	63e3      	str	r3, [r4, #60]	@ 0x3c
 8004b5c:	6ba3      	ldr	r3, [r4, #56]	@ 0x38
 8004b5e:	6423      	str	r3, [r4, #64]	@ 0x40
 8004b60:	2000      	movs	r0, #0
 8004b62:	e7b2      	b.n	8004aca <TC_MoveExecution+0x18>
 8004b64:	6a21      	ldr	r1, [r4, #32]
 8004b66:	1c28      	adds	r0, r5, #0
 8004b68:	f7fb fc6a 	bl	8000440 <__aeabi_fcmplt>
 8004b6c:	2800      	cmp	r0, #0
 8004b6e:	d1e8      	bne.n	8004b42 <TC_MoveExecution+0x90>
 8004b70:	6a61      	ldr	r1, [r4, #36]	@ 0x24
 8004b72:	1c28      	adds	r0, r5, #0
 8004b74:	f7fb fc64 	bl	8000440 <__aeabi_fcmplt>
 8004b78:	2800      	cmp	r0, #0
 8004b7a:	d1f1      	bne.n	8004b60 <TC_MoveExecution+0xae>
 8004b7c:	6821      	ldr	r1, [r4, #0]
 8004b7e:	1c28      	adds	r0, r5, #0
 8004b80:	f7fb fc5e 	bl	8000440 <__aeabi_fcmplt>
 8004b84:	2800      	cmp	r0, #0
 8004b86:	d19f      	bne.n	8004ac8 <TC_MoveExecution+0x16>
 8004b88:	68a3      	ldr	r3, [r4, #8]
 8004b8a:	64a3      	str	r3, [r4, #72]	@ 0x48
 8004b8c:	2302      	movs	r3, #2
 8004b8e:	703b      	strb	r3, [r7, #0]
 8004b90:	e7e6      	b.n	8004b60 <TC_MoveExecution+0xae>
	...

08004b94 <TC_PositionRegulation>:
 8004b94:	b570      	push	{r4, r5, r6, lr}
 8004b96:	0005      	movs	r5, r0
 8004b98:	3560      	adds	r5, #96	@ 0x60
 8004b9a:	782b      	ldrb	r3, [r5, #0]
 8004b9c:	0004      	movs	r4, r0
 8004b9e:	2b01      	cmp	r3, #1
 8004ba0:	d101      	bne.n	8004ba6 <TC_PositionRegulation+0x12>
 8004ba2:	f7ff ff86 	bl	8004ab2 <TC_MoveExecution>
 8004ba6:	782b      	ldrb	r3, [r5, #0]
 8004ba8:	2b03      	cmp	r3, #3
 8004baa:	d102      	bne.n	8004bb2 <TC_PositionRegulation+0x1e>
 8004bac:	0020      	movs	r0, r4
 8004bae:	f7ff ff27 	bl	8004a00 <TC_FollowExecution>
 8004bb2:	0023      	movs	r3, r4
 8004bb4:	3351      	adds	r3, #81	@ 0x51
 8004bb6:	781b      	ldrb	r3, [r3, #0]
 8004bb8:	2b00      	cmp	r3, #0
 8004bba:	d019      	beq.n	8004bf0 <TC_PositionRegulation+0x5c>
 8004bbc:	490d      	ldr	r1, [pc, #52]	@ (8004bf4 <TC_PositionRegulation+0x60>)
 8004bbe:	6ca0      	ldr	r0, [r4, #72]	@ 0x48
 8004bc0:	f7fb ffd6 	bl	8000b70 <__aeabi_fmul>
 8004bc4:	f7fc fab6 	bl	8001134 <__aeabi_f2iz>
 8004bc8:	0005      	movs	r5, r0
 8004bca:	6ea0      	ldr	r0, [r4, #104]	@ 0x68
 8004bcc:	f7ff fd02 	bl	80045d4 <STC_GetSpeedSensor>
 8004bd0:	f7ff fcb5 	bl	800453e <SPD_GetMecAngle>
 8004bd4:	1a29      	subs	r1, r5, r0
 8004bd6:	6ee0      	ldr	r0, [r4, #108]	@ 0x6c
 8004bd8:	f7fe ff54 	bl	8003a84 <PID_Controller>
 8004bdc:	0005      	movs	r5, r0
 8004bde:	2100      	movs	r1, #0
 8004be0:	6ea0      	ldr	r0, [r4, #104]	@ 0x68
 8004be2:	f7ff fd08 	bl	80045f6 <STC_SetControlMode>
 8004be6:	2200      	movs	r2, #0
 8004be8:	0029      	movs	r1, r5
 8004bea:	6ea0      	ldr	r0, [r4, #104]	@ 0x68
 8004bec:	f7ff fd07 	bl	80045fe <STC_ExecRamp>
 8004bf0:	bd70      	pop	{r4, r5, r6, pc}
 8004bf2:	46c0      	nop			@ (mov r8, r8)
 8004bf4:	4622f983 	.word	0x4622f983

08004bf8 <TC_EncoderReset>:
 8004bf8:	b5f8      	push	{r3, r4, r5, r6, r7, lr}
 8004bfa:	0005      	movs	r5, r0
 8004bfc:	3552      	adds	r5, #82	@ 0x52
 8004bfe:	782a      	ldrb	r2, [r5, #0]
 8004c00:	0003      	movs	r3, r0
 8004c02:	2a00      	cmp	r2, #0
 8004c04:	d114      	bne.n	8004c30 <TC_EncoderReset+0x38>
 8004c06:	0004      	movs	r4, r0
 8004c08:	3462      	adds	r4, #98	@ 0x62
 8004c0a:	7826      	ldrb	r6, [r4, #0]
 8004c0c:	2e01      	cmp	r6, #1
 8004c0e:	d10f      	bne.n	8004c30 <TC_EncoderReset+0x38>
 8004c10:	6e40      	ldr	r0, [r0, #100]	@ 0x64
 8004c12:	3c02      	subs	r4, #2
 8004c14:	2706      	movs	r7, #6
 8004c16:	5fc1      	ldrsh	r1, [r0, r7]
 8004c18:	001f      	movs	r7, r3
 8004c1a:	3754      	adds	r7, #84	@ 0x54
 8004c1c:	8039      	strh	r1, [r7, #0]
 8004c1e:	6082      	str	r2, [r0, #8]
 8004c20:	702e      	strb	r6, [r5, #0]
 8004c22:	2502      	movs	r5, #2
 8004c24:	70a5      	strb	r5, [r4, #2]
 8004c26:	7022      	strb	r2, [r4, #0]
 8004c28:	2200      	movs	r2, #0
 8004c2a:	649a      	str	r2, [r3, #72]	@ 0x48
 8004c2c:	f7fe fe60 	bl	80038f0 <ENC_SetMecAngle>
 8004c30:	bdf8      	pop	{r3, r4, r5, r6, r7, pc}
	...

08004c34 <TC_GetCurrentPosition>:
 8004c34:	b510      	push	{r4, lr}
 8004c36:	6e80      	ldr	r0, [r0, #104]	@ 0x68
 8004c38:	f7ff fccc 	bl	80045d4 <STC_GetSpeedSensor>
 8004c3c:	f7ff fc7f 	bl	800453e <SPD_GetMecAngle>
 8004c40:	f7fc fa98 	bl	8001174 <__aeabi_i2f>
 8004c44:	4901      	ldr	r1, [pc, #4]	@ (8004c4c <TC_GetCurrentPosition+0x18>)
 8004c46:	f7fb fdad 	bl	80007a4 <__aeabi_fdiv>
 8004c4a:	bd10      	pop	{r4, pc}
 8004c4c:	4622f983 	.word	0x4622f983

08004c50 <TC_GetAlignmentStatus>:
 8004c50:	3062      	adds	r0, #98	@ 0x62
 8004c52:	7800      	ldrb	r0, [r0, #0]
 8004c54:	4770      	bx	lr

08004c56 <TC_IncTick>:
 8004c56:	6d83      	ldr	r3, [r0, #88]	@ 0x58
 8004c58:	3301      	adds	r3, #1
 8004c5a:	6583      	str	r3, [r0, #88]	@ 0x58
 8004c5c:	4770      	bx	lr

08004c5e <VSS_Clear>:
 8004c5e:	b570      	push	{r4, r5, r6, lr}
 8004c60:	0005      	movs	r5, r0
 8004c62:	2300      	movs	r3, #0
 8004c64:	0004      	movs	r4, r0
 8004c66:	8ec2      	ldrh	r2, [r0, #54]	@ 0x36
 8004c68:	3538      	adds	r5, #56	@ 0x38
 8004c6a:	7003      	strb	r3, [r0, #0]
 8004c6c:	6043      	str	r3, [r0, #4]
 8004c6e:	60c3      	str	r3, [r0, #12]
 8004c70:	8243      	strh	r3, [r0, #18]
 8004c72:	6203      	str	r3, [r0, #32]
 8004c74:	6243      	str	r3, [r0, #36]	@ 0x24
 8004c76:	8503      	strh	r3, [r0, #40]	@ 0x28
 8004c78:	8583      	strh	r3, [r0, #44]	@ 0x2c
 8004c7a:	6303      	str	r3, [r0, #48]	@ 0x30
 8004c7c:	85c2      	strh	r2, [r0, #46]	@ 0x2e
 8004c7e:	2101      	movs	r1, #1
 8004c80:	7842      	ldrb	r2, [r0, #1]
 8004c82:	0028      	movs	r0, r5
 8004c84:	f000 f868 	bl	8004d58 <FD_FastDiv>
 8004c88:	0028      	movs	r0, r5
 8004c8a:	2101      	movs	r1, #1
 8004c8c:	2336      	movs	r3, #54	@ 0x36
 8004c8e:	5ee2      	ldrsh	r2, [r4, r3]
 8004c90:	f000 f862 	bl	8004d58 <FD_FastDiv>
 8004c94:	bd70      	pop	{r4, r5, r6, pc}

08004c96 <VSS_Init>:
 8004c96:	b510      	push	{r4, lr}
 8004c98:	0004      	movs	r4, r0
 8004c9a:	3038      	adds	r0, #56	@ 0x38
 8004c9c:	f000 f84a 	bl	8004d34 <FD_Init>
 8004ca0:	0020      	movs	r0, r4
 8004ca2:	f7ff ffdc 	bl	8004c5e <VSS_Clear>
 8004ca6:	bd10      	pop	{r4, pc}

08004ca8 <VSS_SetMecAngle>:
 8004ca8:	b570      	push	{r4, r5, r6, lr}
 8004caa:	000d      	movs	r5, r1
 8004cac:	0004      	movs	r4, r0
 8004cae:	8601      	strh	r1, [r0, #48]	@ 0x30
 8004cb0:	7841      	ldrb	r1, [r0, #1]
 8004cb2:	0028      	movs	r0, r5
 8004cb4:	f7fb fac6 	bl	8000244 <__divsi3>
 8004cb8:	80a5      	strh	r5, [r4, #4]
 8004cba:	80e0      	strh	r0, [r4, #6]
 8004cbc:	bd70      	pop	{r4, r5, r6, pc}

08004cbe <VSS_SetMecAcceleration>:
 8004cbe:	0003      	movs	r3, r0
 8004cc0:	b5f7      	push	{r0, r1, r2, r4, r5, r6, r7, lr}
 8004cc2:	332c      	adds	r3, #44	@ 0x2c
 8004cc4:	781b      	ldrb	r3, [r3, #0]
 8004cc6:	0004      	movs	r4, r0
 8004cc8:	000e      	movs	r6, r1
 8004cca:	0015      	movs	r5, r2
 8004ccc:	2b00      	cmp	r3, #0
 8004cce:	d110      	bne.n	8004cf2 <VSS_SetMecAcceleration+0x34>
 8004cd0:	7847      	ldrb	r7, [r0, #1]
 8004cd2:	69c0      	ldr	r0, [r0, #28]
 8004cd4:	8b63      	ldrh	r3, [r4, #26]
 8004cd6:	4348      	muls	r0, r1
 8004cd8:	210a      	movs	r1, #10
 8004cda:	4359      	muls	r1, r3
 8004cdc:	f7fb fab2 	bl	8000244 <__divsi3>
 8004ce0:	9001      	str	r0, [sp, #4]
 8004ce2:	2d00      	cmp	r5, #0
 8004ce4:	d106      	bne.n	8004cf4 <VSS_SetMecAcceleration+0x36>
 8004ce6:	0003      	movs	r3, r0
 8004ce8:	437b      	muls	r3, r7
 8004cea:	81a6      	strh	r6, [r4, #12]
 8004cec:	81e3      	strh	r3, [r4, #14]
 8004cee:	8525      	strh	r5, [r4, #40]	@ 0x28
 8004cf0:	8566      	strh	r6, [r4, #42]	@ 0x2a
 8004cf2:	bdf7      	pop	{r0, r1, r2, r4, r5, r6, r7, pc}
 8004cf4:	21fa      	movs	r1, #250	@ 0xfa
 8004cf6:	8ea0      	ldrh	r0, [r4, #52]	@ 0x34
 8004cf8:	0089      	lsls	r1, r1, #2
 8004cfa:	4368      	muls	r0, r5
 8004cfc:	f7fb fa18 	bl	8000130 <__udivsi3>
 8004d00:	3001      	adds	r0, #1
 8004d02:	b283      	uxth	r3, r0
 8004d04:	9300      	str	r3, [sp, #0]
 8004d06:	8523      	strh	r3, [r4, #40]	@ 0x28
 8004d08:	230e      	movs	r3, #14
 8004d0a:	5ee5      	ldrsh	r5, [r4, r3]
 8004d0c:	466b      	mov	r3, sp
 8004d0e:	2204      	movs	r2, #4
 8004d10:	5e9b      	ldrsh	r3, [r3, r2]
 8004d12:	0039      	movs	r1, r7
 8004d14:	0028      	movs	r0, r5
 8004d16:	9301      	str	r3, [sp, #4]
 8004d18:	f7fb fa94 	bl	8000244 <__divsi3>
 8004d1c:	9b01      	ldr	r3, [sp, #4]
 8004d1e:	9900      	ldr	r1, [sp, #0]
 8004d20:	1a18      	subs	r0, r3, r0
 8004d22:	0400      	lsls	r0, r0, #16
 8004d24:	f7fb fa8e 	bl	8000244 <__divsi3>
 8004d28:	4378      	muls	r0, r7
 8004d2a:	042b      	lsls	r3, r5, #16
 8004d2c:	6220      	str	r0, [r4, #32]
 8004d2e:	8566      	strh	r6, [r4, #42]	@ 0x2a
 8004d30:	6263      	str	r3, [r4, #36]	@ 0x24
 8004d32:	e7de      	b.n	8004cf2 <VSS_SetMecAcceleration+0x34>

08004d34 <FD_Init>:
 8004d34:	2300      	movs	r3, #0
 8004d36:	7003      	strb	r3, [r0, #0]
 8004d38:	6043      	str	r3, [r0, #4]
 8004d3a:	6083      	str	r3, [r0, #8]
 8004d3c:	60c3      	str	r3, [r0, #12]
 8004d3e:	6103      	str	r3, [r0, #16]
 8004d40:	6143      	str	r3, [r0, #20]
 8004d42:	6183      	str	r3, [r0, #24]
 8004d44:	61c3      	str	r3, [r0, #28]
 8004d46:	6203      	str	r3, [r0, #32]
 8004d48:	6243      	str	r3, [r0, #36]	@ 0x24
 8004d4a:	6283      	str	r3, [r0, #40]	@ 0x28
 8004d4c:	62c3      	str	r3, [r0, #44]	@ 0x2c
 8004d4e:	6303      	str	r3, [r0, #48]	@ 0x30
 8004d50:	6343      	str	r3, [r0, #52]	@ 0x34
 8004d52:	6383      	str	r3, [r0, #56]	@ 0x38
 8004d54:	63c3      	str	r3, [r0, #60]	@ 0x3c
 8004d56:	4770      	bx	lr

08004d58 <FD_FastDiv>:
 8004d58:	b5f8      	push	{r3, r4, r5, r6, r7, lr}
 8004d5a:	4645      	mov	r5, r8
 8004d5c:	464e      	mov	r6, r9
 8004d5e:	46de      	mov	lr, fp
 8004d60:	4657      	mov	r7, sl
 8004d62:	4689      	mov	r9, r1
 8004d64:	b5e0      	push	{r5, r6, r7, lr}
 8004d66:	4690      	mov	r8, r2
 8004d68:	0005      	movs	r5, r0
 8004d6a:	2000      	movs	r0, #0
 8004d6c:	2a00      	cmp	r2, #0
 8004d6e:	d100      	bne.n	8004d72 <FD_FastDiv+0x1a>
 8004d70:	e08f      	b.n	8004e92 <FD_FastDiv+0x13a>
 8004d72:	2a01      	cmp	r2, #1
 8004d74:	d100      	bne.n	8004d78 <FD_FastDiv+0x20>
 8004d76:	e092      	b.n	8004e9e <FD_FastDiv+0x146>
 8004d78:	68eb      	ldr	r3, [r5, #12]
 8004d7a:	429a      	cmp	r2, r3
 8004d7c:	d100      	bne.n	8004d80 <FD_FastDiv+0x28>
 8004d7e:	e090      	b.n	8004ea2 <FD_FastDiv+0x14a>
 8004d80:	69ab      	ldr	r3, [r5, #24]
 8004d82:	429a      	cmp	r2, r3
 8004d84:	d100      	bne.n	8004d88 <FD_FastDiv+0x30>
 8004d86:	e095      	b.n	8004eb4 <FD_FastDiv+0x15c>
 8004d88:	6a6b      	ldr	r3, [r5, #36]	@ 0x24
 8004d8a:	429a      	cmp	r2, r3
 8004d8c:	d100      	bne.n	8004d90 <FD_FastDiv+0x38>
 8004d8e:	e093      	b.n	8004eb8 <FD_FastDiv+0x160>
 8004d90:	6b2b      	ldr	r3, [r5, #48]	@ 0x30
 8004d92:	429a      	cmp	r2, r3
 8004d94:	d100      	bne.n	8004d98 <FD_FastDiv+0x40>
 8004d96:	e091      	b.n	8004ebc <FD_FastDiv+0x164>
 8004d98:	6beb      	ldr	r3, [r5, #60]	@ 0x3c
 8004d9a:	4293      	cmp	r3, r2
 8004d9c:	d100      	bne.n	8004da0 <FD_FastDiv+0x48>
 8004d9e:	e08f      	b.n	8004ec0 <FD_FastDiv+0x168>
 8004da0:	0013      	movs	r3, r2
 8004da2:	17d2      	asrs	r2, r2, #31
 8004da4:	189b      	adds	r3, r3, r2
 8004da6:	4053      	eors	r3, r2
 8004da8:	469a      	mov	sl, r3
 8004daa:	4643      	mov	r3, r8
 8004dac:	0fd8      	lsrs	r0, r3, #31
 8004dae:	4b45      	ldr	r3, [pc, #276]	@ (8004ec4 <FD_FastDiv+0x16c>)
 8004db0:	4651      	mov	r1, sl
 8004db2:	18c4      	adds	r4, r0, r3
 8004db4:	3301      	adds	r3, #1
 8004db6:	469c      	mov	ip, r3
 8004db8:	4460      	add	r0, ip
 8004dba:	f7fb fa3f 	bl	800023c <__aeabi_uidivmod>
 8004dbe:	2080      	movs	r0, #128	@ 0x80
 8004dc0:	1a63      	subs	r3, r4, r1
 8004dc2:	0019      	movs	r1, r3
 8004dc4:	0600      	lsls	r0, r0, #24
 8004dc6:	469b      	mov	fp, r3
 8004dc8:	f7fb f9b2 	bl	8000130 <__udivsi3>
 8004dcc:	0006      	movs	r6, r0
 8004dce:	2080      	movs	r0, #128	@ 0x80
 8004dd0:	4659      	mov	r1, fp
 8004dd2:	0600      	lsls	r0, r0, #24
 8004dd4:	f7fb fa32 	bl	800023c <__aeabi_uidivmod>
 8004dd8:	2080      	movs	r0, #128	@ 0x80
 8004dda:	000f      	movs	r7, r1
 8004ddc:	0600      	lsls	r0, r0, #24
 8004dde:	4651      	mov	r1, sl
 8004de0:	f7fb f9a6 	bl	8000130 <__udivsi3>
 8004de4:	0004      	movs	r4, r0
 8004de6:	2080      	movs	r0, #128	@ 0x80
 8004de8:	4651      	mov	r1, sl
 8004dea:	0600      	lsls	r0, r0, #24
 8004dec:	f7fb fa26 	bl	800023c <__aeabi_uidivmod>
 8004df0:	221f      	movs	r2, #31
 8004df2:	1c50      	adds	r0, r2, #1
 8004df4:	0076      	lsls	r6, r6, #1
 8004df6:	007f      	lsls	r7, r7, #1
 8004df8:	45bb      	cmp	fp, r7
 8004dfa:	d802      	bhi.n	8004e02 <FD_FastDiv+0xaa>
 8004dfc:	465b      	mov	r3, fp
 8004dfe:	3601      	adds	r6, #1
 8004e00:	1aff      	subs	r7, r7, r3
 8004e02:	0064      	lsls	r4, r4, #1
 8004e04:	0049      	lsls	r1, r1, #1
 8004e06:	458a      	cmp	sl, r1
 8004e08:	d802      	bhi.n	8004e10 <FD_FastDiv+0xb8>
 8004e0a:	4653      	mov	r3, sl
 8004e0c:	3401      	adds	r4, #1
 8004e0e:	1ac9      	subs	r1, r1, r3
 8004e10:	4653      	mov	r3, sl
 8004e12:	1a5b      	subs	r3, r3, r1
 8004e14:	42b3      	cmp	r3, r6
 8004e16:	d802      	bhi.n	8004e1e <FD_FastDiv+0xc6>
 8004e18:	d103      	bne.n	8004e22 <FD_FastDiv+0xca>
 8004e1a:	2f00      	cmp	r7, #0
 8004e1c:	d101      	bne.n	8004e22 <FD_FastDiv+0xca>
 8004e1e:	0002      	movs	r2, r0
 8004e20:	e7e7      	b.n	8004df2 <FD_FastDiv+0x9a>
 8004e22:	4643      	mov	r3, r8
 8004e24:	1c67      	adds	r7, r4, #1
 8004e26:	2b00      	cmp	r3, #0
 8004e28:	da00      	bge.n	8004e2c <FD_FastDiv+0xd4>
 8004e2a:	427f      	negs	r7, r7
 8004e2c:	2300      	movs	r3, #0
 8004e2e:	4640      	mov	r0, r8
 8004e30:	56eb      	ldrsb	r3, [r5, r3]
 8004e32:	2400      	movs	r4, #0
 8004e34:	0059      	lsls	r1, r3, #1
 8004e36:	18c9      	adds	r1, r1, r3
 8004e38:	0089      	lsls	r1, r1, #2
 8004e3a:	3104      	adds	r1, #4
 8004e3c:	1869      	adds	r1, r5, r1
 8004e3e:	6088      	str	r0, [r1, #8]
 8004e40:	2004      	movs	r0, #4
 8004e42:	3301      	adds	r3, #1
 8004e44:	b25b      	sxtb	r3, r3
 8004e46:	3a1f      	subs	r2, #31
 8004e48:	600f      	str	r7, [r1, #0]
 8004e4a:	604a      	str	r2, [r1, #4]
 8004e4c:	0fd9      	lsrs	r1, r3, #31
 8004e4e:	4298      	cmp	r0, r3
 8004e50:	4161      	adcs	r1, r4
 8004e52:	4249      	negs	r1, r1
 8004e54:	400b      	ands	r3, r1
 8004e56:	702b      	strb	r3, [r5, #0]
 8004e58:	464b      	mov	r3, r9
 8004e5a:	17d9      	asrs	r1, r3, #31
 8004e5c:	1858      	adds	r0, r3, r1
 8004e5e:	4048      	eors	r0, r1
 8004e60:	0439      	lsls	r1, r7, #16
 8004e62:	0c09      	lsrs	r1, r1, #16
 8004e64:	000b      	movs	r3, r1
 8004e66:	0406      	lsls	r6, r0, #16
 8004e68:	0c36      	lsrs	r6, r6, #16
 8004e6a:	0c00      	lsrs	r0, r0, #16
 8004e6c:	4373      	muls	r3, r6
 8004e6e:	4341      	muls	r1, r0
 8004e70:	0c3c      	lsrs	r4, r7, #16
 8004e72:	4360      	muls	r0, r4
 8004e74:	0c1b      	lsrs	r3, r3, #16
 8004e76:	185b      	adds	r3, r3, r1
 8004e78:	0419      	lsls	r1, r3, #16
 8004e7a:	0c1b      	lsrs	r3, r3, #16
 8004e7c:	1818      	adds	r0, r3, r0
 8004e7e:	464b      	mov	r3, r9
 8004e80:	4374      	muls	r4, r6
 8004e82:	0c09      	lsrs	r1, r1, #16
 8004e84:	1864      	adds	r4, r4, r1
 8004e86:	0c24      	lsrs	r4, r4, #16
 8004e88:	1900      	adds	r0, r0, r4
 8004e8a:	4110      	asrs	r0, r2
 8004e8c:	2b00      	cmp	r3, #0
 8004e8e:	dc00      	bgt.n	8004e92 <FD_FastDiv+0x13a>
 8004e90:	4240      	negs	r0, r0
 8004e92:	bc3c      	pop	{r2, r3, r4, r5}
 8004e94:	4690      	mov	r8, r2
 8004e96:	4699      	mov	r9, r3
 8004e98:	46a2      	mov	sl, r4
 8004e9a:	46ab      	mov	fp, r5
 8004e9c:	bdf8      	pop	{r3, r4, r5, r6, r7, pc}
 8004e9e:	0008      	movs	r0, r1
 8004ea0:	e7f7      	b.n	8004e92 <FD_FastDiv+0x13a>
 8004ea2:	2200      	movs	r2, #0
 8004ea4:	0053      	lsls	r3, r2, #1
 8004ea6:	189b      	adds	r3, r3, r2
 8004ea8:	009b      	lsls	r3, r3, #2
 8004eaa:	3304      	adds	r3, #4
 8004eac:	18eb      	adds	r3, r5, r3
 8004eae:	681f      	ldr	r7, [r3, #0]
 8004eb0:	685a      	ldr	r2, [r3, #4]
 8004eb2:	e7d1      	b.n	8004e58 <FD_FastDiv+0x100>
 8004eb4:	2201      	movs	r2, #1
 8004eb6:	e7f5      	b.n	8004ea4 <FD_FastDiv+0x14c>
 8004eb8:	2202      	movs	r2, #2
 8004eba:	e7f3      	b.n	8004ea4 <FD_FastDiv+0x14c>
 8004ebc:	2203      	movs	r2, #3
 8004ebe:	e7f1      	b.n	8004ea4 <FD_FastDiv+0x14c>
 8004ec0:	2204      	movs	r2, #4
 8004ec2:	e7ef      	b.n	8004ea4 <FD_FastDiv+0x14c>
 8004ec4:	7fffffff 	.word	0x7fffffff

08004ec8 <memset>:
 8004ec8:	0003      	movs	r3, r0
 8004eca:	1882      	adds	r2, r0, r2
 8004ecc:	4293      	cmp	r3, r2
 8004ece:	d100      	bne.n	8004ed2 <memset+0xa>
 8004ed0:	4770      	bx	lr
 8004ed2:	7019      	strb	r1, [r3, #0]
 8004ed4:	3301      	adds	r3, #1
 8004ed6:	e7f9      	b.n	8004ecc <memset+0x4>

08004ed8 <__libc_init_array>:
 8004ed8:	b570      	push	{r4, r5, r6, lr}
 8004eda:	2600      	movs	r6, #0
 8004edc:	4c0c      	ldr	r4, [pc, #48]	@ (8004f10 <__libc_init_array+0x38>)
 8004ede:	4d0d      	ldr	r5, [pc, #52]	@ (8004f14 <__libc_init_array+0x3c>)
 8004ee0:	1b64      	subs	r4, r4, r5
 8004ee2:	10a4      	asrs	r4, r4, #2
 8004ee4:	42a6      	cmp	r6, r4
 8004ee6:	d109      	bne.n	8004efc <__libc_init_array+0x24>
 8004ee8:	2600      	movs	r6, #0
 8004eea:	f000 f823 	bl	8004f34 <_init>
 8004eee:	4c0a      	ldr	r4, [pc, #40]	@ (8004f18 <__libc_init_array+0x40>)
 8004ef0:	4d0a      	ldr	r5, [pc, #40]	@ (8004f1c <__libc_init_array+0x44>)
 8004ef2:	1b64      	subs	r4, r4, r5
 8004ef4:	10a4      	asrs	r4, r4, #2
 8004ef6:	42a6      	cmp	r6, r4
 8004ef8:	d105      	bne.n	8004f06 <__libc_init_array+0x2e>
 8004efa:	bd70      	pop	{r4, r5, r6, pc}
 8004efc:	00b3      	lsls	r3, r6, #2
 8004efe:	58eb      	ldr	r3, [r5, r3]
 8004f00:	4798      	blx	r3
 8004f02:	3601      	adds	r6, #1
 8004f04:	e7ee      	b.n	8004ee4 <__libc_init_array+0xc>
 8004f06:	00b3      	lsls	r3, r6, #2
 8004f08:	58eb      	ldr	r3, [r5, r3]
 8004f0a:	4798      	blx	r3
 8004f0c:	3601      	adds	r6, #1
 8004f0e:	e7f2      	b.n	8004ef6 <__libc_init_array+0x1e>
 8004f10:	08005284 	.word	0x08005284
 8004f14:	08005284 	.word	0x08005284
 8004f18:	08005288 	.word	0x08005288
 8004f1c:	08005284 	.word	0x08005284

08004f20 <memcpy>:
 8004f20:	2300      	movs	r3, #0
 8004f22:	b510      	push	{r4, lr}
 8004f24:	429a      	cmp	r2, r3
 8004f26:	d100      	bne.n	8004f2a <memcpy+0xa>
 8004f28:	bd10      	pop	{r4, pc}
 8004f2a:	5ccc      	ldrb	r4, [r1, r3]
 8004f2c:	54c4      	strb	r4, [r0, r3]
 8004f2e:	3301      	adds	r3, #1
 8004f30:	e7f8      	b.n	8004f24 <memcpy+0x4>
	...

08004f34 <_init>:
 8004f34:	b5f8      	push	{r3, r4, r5, r6, r7, lr}
 8004f36:	46c0      	nop			@ (mov r8, r8)
 8004f38:	bcf8      	pop	{r3, r4, r5, r6, r7}
 8004f3a:	bc08      	pop	{r3}
 8004f3c:	469e      	mov	lr, r3
 8004f3e:	4770      	bx	lr

08004f40 <_fini>:
 8004f40:	b5f8      	push	{r3, r4, r5, r6, r7, lr}
 8004f42:	46c0      	nop			@ (mov r8, r8)
 8004f44:	bcf8      	pop	{r3, r4, r5, r6, r7}
 8004f46:	bc08      	pop	{r3}
 8004f48:	469e      	mov	lr, r3
 8004f4a:	4770      	bx	lr
